SF:/Users/bradyjeong/Documents/Projects/Amp/gta4/gta_game/crates/amp_core/src/lib.rs
FN:133,_RINvMCs8gkltq3ZNwo_8amp_coreNtB3_5Error10validationReEB3_
FN:118,_RINvMCs8gkltq3ZNwo_8amp_coreNtB3_5Error13configurationReEB3_
FN:140,_RINvMCs8gkltq3ZNwo_8amp_coreNtB3_5Error13invalid_stateReEB3_
FN:125,_RINvMCs8gkltq3ZNwo_8amp_coreNtB3_5Error13resource_loadReBQ_EB3_
FN:111,_RINvMCs8gkltq3ZNwo_8amp_coreNtB3_5Error13serializationReEB3_
FN:147,_RINvMCs8gkltq3ZNwo_8amp_coreNtB3_5Error3gpuReEB3_
FN:154,_RINvMCs8gkltq3ZNwo_8amp_coreNtB3_5Error8internalReEB3_
FN:168,_RINvMs_Cs8gkltq3ZNwo_8amp_coreNtB5_11ConfigError11parse_errorReEB5_
FN:163,_RINvMs_Cs8gkltq3ZNwo_8amp_coreNtB5_11ConfigError14file_not_foundReEB5_
FN:175,_RINvMs_Cs8gkltq3ZNwo_8amp_coreNtB5_11ConfigError14invalid_formatReEB5_
FN:236,_RNvNtCs8gkltq3ZNwo_8amp_core5testss_14test_gpu_error
FN:272,_RNvNtCs8gkltq3ZNwo_8amp_core5testss_16test_error_chain
FN:264,_RNvNtCs8gkltq3ZNwo_8amp_core5testss_16test_error_debug
FN:250,_RNvNtCs8gkltq3ZNwo_8amp_core5testss_17test_result_alias
FN:194,_RNvNtCs8gkltq3ZNwo_8amp_core5testss_18test_error_from_io
FN:187,_RNvNtCs8gkltq3ZNwo_8amp_core5testss_19test_error_creation
FN:243,_RNvNtCs8gkltq3ZNwo_8amp_core5testss_19test_internal_error
FN:219,_RNvNtCs8gkltq3ZNwo_8amp_core5testss_21test_validation_error
FN:329,_RNvNtCs8gkltq3ZNwo_8amp_core5testss_23test_config_error_debug
FN:229,_RNvNtCs8gkltq3ZNwo_8amp_core5testss_24test_invalid_state_error
FN:209,_RNvNtCs8gkltq3ZNwo_8amp_core5testss_24test_resource_load_error
FN:202,_RNvNtCs8gkltq3ZNwo_8amp_core5testss_24test_serialization_error
FN:310,_RNvNtCs8gkltq3ZNwo_8amp_core5testss_26test_config_error_io_error
FN:290,_RNvNtCs8gkltq3ZNwo_8amp_core5testss_29test_config_error_parse_error
FN:283,_RNvNtCs8gkltq3ZNwo_8amp_core5testss_32test_config_error_file_not_found
FN:300,_RNvNtCs8gkltq3ZNwo_8amp_core5testss_32test_config_error_invalid_format
FN:318,_RNvNtCs8gkltq3ZNwo_8amp_core5testss_33test_config_error_into_main_error
FN:337,_RNvNtCs8gkltq3ZNwo_8amp_core5testss_36test_config_error_chain_through_main
FN:251,_RNvNvNtCs8gkltq3ZNwo_8amp_core5testss_17test_result_alias13test_function
FN:255,_RNvNvNtCs8gkltq3ZNwo_8amp_core5testss_17test_result_alias19test_function_error
FN:154,_RINvMCshoe3sVM5JYZ_8amp_coreNtB3_5Error8internalNtNtCs7fnLZwG9eJV_5alloc6string6StringECs4uPOfESYL58_11amp_spatial
FN:133,_RINvMCshoe3sVM5JYZ_8amp_coreNtB3_5Error10validationpEB3_
FN:118,_RINvMCshoe3sVM5JYZ_8amp_coreNtB3_5Error13configurationpEB3_
FN:140,_RINvMCshoe3sVM5JYZ_8amp_coreNtB3_5Error13invalid_statepEB3_
FN:125,_RINvMCshoe3sVM5JYZ_8amp_coreNtB3_5Error13resource_loadppEB3_
FN:111,_RINvMCshoe3sVM5JYZ_8amp_coreNtB3_5Error13serializationpEB3_
FN:147,_RINvMCshoe3sVM5JYZ_8amp_coreNtB3_5Error3gpupEB3_
FN:154,_RINvMCshoe3sVM5JYZ_8amp_coreNtB3_5Error8internalpEB3_
FN:168,_RINvMs_Cshoe3sVM5JYZ_8amp_coreNtB5_11ConfigError11parse_errorpEB5_
FN:163,_RINvMs_Cshoe3sVM5JYZ_8amp_coreNtB5_11ConfigError14file_not_foundpEB5_
FN:175,_RINvMs_Cshoe3sVM5JYZ_8amp_coreNtB5_11ConfigError14invalid_formatpEB5_
FN:168,_RINvMs_Cshoe3sVM5JYZ_8amp_coreNtB5_11ConfigError11parse_errorNtNtCs7fnLZwG9eJV_5alloc6string6StringECsJv4e08Ea6h_11config_core
FN:163,_RINvMs_Cshoe3sVM5JYZ_8amp_coreNtB5_11ConfigError14file_not_foundNtNtCs7fnLZwG9eJV_5alloc6string6StringECsJv4e08Ea6h_11config_core
FNDA:1,_RINvMCs8gkltq3ZNwo_8amp_coreNtB3_5Error10validationReEB3_
FNDA:2,_RINvMCs8gkltq3ZNwo_8amp_coreNtB3_5Error13configurationReEB3_
FNDA:1,_RINvMCs8gkltq3ZNwo_8amp_coreNtB3_5Error13invalid_stateReEB3_
FNDA:1,_RINvMCs8gkltq3ZNwo_8amp_coreNtB3_5Error13resource_loadReBQ_EB3_
FNDA:1,_RINvMCs8gkltq3ZNwo_8amp_coreNtB3_5Error13serializationReEB3_
FNDA:1,_RINvMCs8gkltq3ZNwo_8amp_coreNtB3_5Error3gpuReEB3_
FNDA:2,_RINvMCs8gkltq3ZNwo_8amp_coreNtB3_5Error8internalReEB3_
FNDA:2,_RINvMs_Cs8gkltq3ZNwo_8amp_coreNtB5_11ConfigError11parse_errorReEB5_
FNDA:2,_RINvMs_Cs8gkltq3ZNwo_8amp_coreNtB5_11ConfigError14file_not_foundReEB5_
FNDA:1,_RINvMs_Cs8gkltq3ZNwo_8amp_coreNtB5_11ConfigError14invalid_formatReEB5_
FNDA:1,_RNvNtCs8gkltq3ZNwo_8amp_core5testss_14test_gpu_error
FNDA:1,_RNvNtCs8gkltq3ZNwo_8amp_core5testss_16test_error_chain
FNDA:1,_RNvNtCs8gkltq3ZNwo_8amp_core5testss_16test_error_debug
FNDA:1,_RNvNtCs8gkltq3ZNwo_8amp_core5testss_17test_result_alias
FNDA:1,_RNvNtCs8gkltq3ZNwo_8amp_core5testss_18test_error_from_io
FNDA:1,_RNvNtCs8gkltq3ZNwo_8amp_core5testss_19test_error_creation
FNDA:1,_RNvNtCs8gkltq3ZNwo_8amp_core5testss_19test_internal_error
FNDA:1,_RNvNtCs8gkltq3ZNwo_8amp_core5testss_21test_validation_error
FNDA:1,_RNvNtCs8gkltq3ZNwo_8amp_core5testss_23test_config_error_debug
FNDA:1,_RNvNtCs8gkltq3ZNwo_8amp_core5testss_24test_invalid_state_error
FNDA:1,_RNvNtCs8gkltq3ZNwo_8amp_core5testss_24test_resource_load_error
FNDA:1,_RNvNtCs8gkltq3ZNwo_8amp_core5testss_24test_serialization_error
FNDA:1,_RNvNtCs8gkltq3ZNwo_8amp_core5testss_26test_config_error_io_error
FNDA:1,_RNvNtCs8gkltq3ZNwo_8amp_core5testss_29test_config_error_parse_error
FNDA:1,_RNvNtCs8gkltq3ZNwo_8amp_core5testss_32test_config_error_file_not_found
FNDA:1,_RNvNtCs8gkltq3ZNwo_8amp_core5testss_32test_config_error_invalid_format
FNDA:1,_RNvNtCs8gkltq3ZNwo_8amp_core5testss_33test_config_error_into_main_error
FNDA:1,_RNvNtCs8gkltq3ZNwo_8amp_core5testss_36test_config_error_chain_through_main
FNDA:1,_RNvNvNtCs8gkltq3ZNwo_8amp_core5testss_17test_result_alias13test_function
FNDA:1,_RNvNvNtCs8gkltq3ZNwo_8amp_core5testss_17test_result_alias19test_function_error
FNDA:9,_RINvMCshoe3sVM5JYZ_8amp_coreNtB3_5Error8internalNtNtCs7fnLZwG9eJV_5alloc6string6StringECs4uPOfESYL58_11amp_spatial
FNDA:0,_RINvMCshoe3sVM5JYZ_8amp_coreNtB3_5Error10validationpEB3_
FNDA:0,_RINvMCshoe3sVM5JYZ_8amp_coreNtB3_5Error13configurationpEB3_
FNDA:0,_RINvMCshoe3sVM5JYZ_8amp_coreNtB3_5Error13invalid_statepEB3_
FNDA:0,_RINvMCshoe3sVM5JYZ_8amp_coreNtB3_5Error13resource_loadppEB3_
FNDA:0,_RINvMCshoe3sVM5JYZ_8amp_coreNtB3_5Error13serializationpEB3_
FNDA:0,_RINvMCshoe3sVM5JYZ_8amp_coreNtB3_5Error3gpupEB3_
FNDA:0,_RINvMCshoe3sVM5JYZ_8amp_coreNtB3_5Error8internalpEB3_
FNDA:0,_RINvMs_Cshoe3sVM5JYZ_8amp_coreNtB5_11ConfigError11parse_errorpEB5_
FNDA:0,_RINvMs_Cshoe3sVM5JYZ_8amp_coreNtB5_11ConfigError14file_not_foundpEB5_
FNDA:0,_RINvMs_Cshoe3sVM5JYZ_8amp_coreNtB5_11ConfigError14invalid_formatpEB5_
FNDA:1,_RINvMs_Cshoe3sVM5JYZ_8amp_coreNtB5_11ConfigError11parse_errorNtNtCs7fnLZwG9eJV_5alloc6string6StringECsJv4e08Ea6h_11config_core
FNDA:3,_RINvMs_Cshoe3sVM5JYZ_8amp_coreNtB5_11ConfigError14file_not_foundNtNtCs7fnLZwG9eJV_5alloc6string6StringECsJv4e08Ea6h_11config_core
FNF:30
FNH:30
DA:111,1
DA:112,1
DA:113,1
DA:114,1
DA:115,1
DA:118,2
DA:119,2
DA:120,2
DA:121,2
DA:122,2
DA:125,1
DA:126,1
DA:127,1
DA:128,1
DA:129,1
DA:130,1
DA:133,1
DA:134,1
DA:135,1
DA:136,1
DA:137,1
DA:140,1
DA:141,1
DA:142,1
DA:143,1
DA:144,1
DA:147,1
DA:148,1
DA:149,1
DA:150,1
DA:151,1
DA:154,11
DA:155,11
DA:156,11
DA:157,11
DA:158,11
DA:163,5
DA:164,5
DA:165,5
DA:168,3
DA:169,3
DA:170,3
DA:171,3
DA:172,3
DA:175,1
DA:176,1
DA:177,1
DA:178,1
DA:179,1
DA:187,1
DA:188,1
DA:189,1
DA:190,1
DA:191,1
DA:194,1
DA:195,1
DA:196,1
DA:197,1
DA:198,1
DA:199,1
DA:202,1
DA:203,1
DA:204,1
DA:205,1
DA:206,1
DA:209,1
DA:210,1
DA:211,1
DA:212,1
DA:213,1
DA:216,1
DA:219,1
DA:220,1
DA:221,1
DA:222,1
DA:223,1
DA:226,1
DA:229,1
DA:230,1
DA:231,1
DA:232,1
DA:233,1
DA:236,1
DA:237,1
DA:238,1
DA:239,1
DA:240,1
DA:243,1
DA:244,1
DA:245,1
DA:246,1
DA:247,1
DA:250,1
DA:251,1
DA:252,1
DA:253,1
DA:255,1
DA:256,1
DA:257,1
DA:259,1
DA:260,1
DA:261,1
DA:264,1
DA:265,1
DA:266,1
DA:267,1
DA:268,1
DA:269,1
DA:272,1
DA:273,1
DA:274,1
DA:276,1
DA:277,1
DA:278,1
DA:279,1
DA:283,1
DA:284,1
DA:285,1
DA:286,1
DA:287,1
DA:290,1
DA:291,1
DA:292,1
DA:293,1
DA:294,1
DA:297,1
DA:300,1
DA:301,1
DA:302,1
DA:303,1
DA:304,1
DA:307,1
DA:310,1
DA:311,1
DA:312,1
DA:313,1
DA:314,1
DA:315,1
DA:318,1
DA:319,1
DA:320,1
DA:321,1
DA:322,1
DA:323,1
DA:324,1
DA:325,1
DA:326,1
DA:329,1
DA:330,1
DA:331,1
DA:332,1
DA:333,1
DA:334,1
DA:337,1
DA:338,1
DA:339,1
DA:340,1
DA:342,1
DA:343,1
DA:344,1
DA:345,1
DA:346,1
BRF:0
BRH:0
LF:162
LH:162
end_of_record
SF:/Users/bradyjeong/Documents/Projects/Amp/gta4/gta_game/crates/amp_gpu/src/context.rs
FN:105,_RNvNtNtCsksvoAhYmweA_7amp_gpu7context5testss_25test_gpu_context_creation
FN:79,_RINvMNtCsksvoAhYmweA_7amp_gpu7contextNtB3_10GpuContext6submitpEB5_
FN:41,_RNCNCNvMNtCsksvoAhYmweA_7amp_gpu7contextNtB6_10GpuContext3new00B8_
FN:21,_RNCNvMNtCsksvoAhYmweA_7amp_gpu7contextNtB4_10GpuContext3new0B6_
FN:64,_RNvMNtCsksvoAhYmweA_7amp_gpu7contextNtB2_10GpuContext12adapter_info
FN:84,_RNvMNtCsksvoAhYmweA_7amp_gpu7contextNtB2_10GpuContext12write_buffer
FN:74,_RNvMNtCsksvoAhYmweA_7amp_gpu7contextNtB2_10GpuContext13device_limits
FN:89,_RNvMNtCsksvoAhYmweA_7amp_gpu7contextNtB2_10GpuContext13write_texture
FN:69,_RNvMNtCsksvoAhYmweA_7amp_gpu7contextNtB2_10GpuContext15device_features
FN:21,_RNvMNtCsksvoAhYmweA_7amp_gpu7contextNtB2_10GpuContext3new
FNDA:1,_RNvNtNtCsksvoAhYmweA_7amp_gpu7context5testss_25test_gpu_context_creation
FNDA:0,_RINvMNtCsksvoAhYmweA_7amp_gpu7contextNtB3_10GpuContext6submitpEB5_
FNDA:0,_RNCNCNvMNtCsksvoAhYmweA_7amp_gpu7contextNtB6_10GpuContext3new00B8_
FNDA:0,_RNCNvMNtCsksvoAhYmweA_7amp_gpu7contextNtB4_10GpuContext3new0B6_
FNDA:0,_RNvMNtCsksvoAhYmweA_7amp_gpu7contextNtB2_10GpuContext12adapter_info
FNDA:0,_RNvMNtCsksvoAhYmweA_7amp_gpu7contextNtB2_10GpuContext12write_buffer
FNDA:0,_RNvMNtCsksvoAhYmweA_7amp_gpu7contextNtB2_10GpuContext13device_limits
FNDA:0,_RNvMNtCsksvoAhYmweA_7amp_gpu7contextNtB2_10GpuContext13write_texture
FNDA:0,_RNvMNtCsksvoAhYmweA_7amp_gpu7contextNtB2_10GpuContext15device_features
FNDA:0,_RNvMNtCsksvoAhYmweA_7amp_gpu7contextNtB2_10GpuContext3new
FNF:10
FNH:1
DA:21,0
DA:23,0
DA:24,0
DA:25,0
DA:26,0
DA:27,0
DA:28,0
DA:31,0
DA:34,0
DA:35,0
DA:36,0
DA:37,0
DA:38,0
DA:39,0
DA:40,0
DA:41,0
DA:44,0
DA:45,0
DA:46,0
DA:47,0
DA:48,0
DA:49,0
DA:50,0
DA:51,0
DA:52,0
DA:53,0
DA:55,0
DA:56,0
DA:57,0
DA:58,0
DA:59,0
DA:60,0
DA:61,0
DA:64,0
DA:65,0
DA:66,0
DA:69,0
DA:70,0
DA:71,0
DA:74,0
DA:75,0
DA:76,0
DA:79,0
DA:80,0
DA:81,0
DA:84,0
DA:85,0
DA:86,0
DA:89,0
DA:90,0
DA:91,0
DA:92,0
DA:93,0
DA:94,0
DA:95,0
DA:96,0
DA:97,0
DA:105,1
DA:107,1
DA:108,1
DA:109,1
BRF:0
BRH:0
LF:63
LH:4
end_of_record
SF:/Users/bradyjeong/Documents/Projects/Amp/gta4/gta_game/crates/amp_gpu/src/error.rs
FN:38,_RNvXNtCsksvoAhYmweA_7amp_gpu5errorNtCshoe3sVM5JYZ_8amp_core5ErrorINtNtCsd2KPTObkMr_4core7convert4FromNtB2_8GpuErrorE4from
FNDA:0,_RNvXNtCsksvoAhYmweA_7amp_gpu5errorNtCshoe3sVM5JYZ_8amp_core5ErrorINtNtCsd2KPTObkMr_4core7convert4FromNtB2_8GpuErrorE4from
FNF:1
FNH:0
DA:38,0
DA:39,0
DA:40,0
BRF:0
BRH:0
LF:3
LH:0
end_of_record
SF:/Users/bradyjeong/Documents/Projects/Amp/gta4/gta_game/crates/amp_gpu/src/surface.rs
FN:156,_RNvNtNtCsksvoAhYmweA_7amp_gpu7surface5testss_26test_surface_configuration
FN:142,_RNvNtNtCsksvoAhYmweA_7amp_gpu7surface5testss_26test_surface_manager_color
FN:66,_RNCNvMNtCsksvoAhYmweA_7amp_gpu7surfaceNtB4_14SurfaceManager19get_current_texture0B6_
FN:30,_RNCNvMNtCsksvoAhYmweA_7amp_gpu7surfaceNtB4_14SurfaceManager3new0B6_
FN:72,_RNvMNtCsksvoAhYmweA_7amp_gpu7surfaceNtB2_14SurfaceManager17begin_render_pass
FN:65,_RNvMNtCsksvoAhYmweA_7amp_gpu7surfaceNtB2_14SurfaceManager19get_current_texture
FN:95,_RNvMNtCsksvoAhYmweA_7amp_gpu7surfaceNtB2_14SurfaceManager19render_purple_frame
FN:19,_RNvMNtCsksvoAhYmweA_7amp_gpu7surfaceNtB2_14SurfaceManager3new
FN:132,_RNvMNtCsksvoAhYmweA_7amp_gpu7surfaceNtB2_14SurfaceManager4size
FN:127,_RNvMNtCsksvoAhYmweA_7amp_gpu7surfaceNtB2_14SurfaceManager6format
FN:55,_RNvMNtCsksvoAhYmweA_7amp_gpu7surfaceNtB2_14SurfaceManager6resize
FNDA:1,_RNvNtNtCsksvoAhYmweA_7amp_gpu7surface5testss_26test_surface_configuration
FNDA:1,_RNvNtNtCsksvoAhYmweA_7amp_gpu7surface5testss_26test_surface_manager_color
FNDA:0,_RNCNvMNtCsksvoAhYmweA_7amp_gpu7surfaceNtB4_14SurfaceManager19get_current_texture0B6_
FNDA:0,_RNCNvMNtCsksvoAhYmweA_7amp_gpu7surfaceNtB4_14SurfaceManager3new0B6_
FNDA:0,_RNvMNtCsksvoAhYmweA_7amp_gpu7surfaceNtB2_14SurfaceManager17begin_render_pass
FNDA:0,_RNvMNtCsksvoAhYmweA_7amp_gpu7surfaceNtB2_14SurfaceManager19get_current_texture
FNDA:0,_RNvMNtCsksvoAhYmweA_7amp_gpu7surfaceNtB2_14SurfaceManager19render_purple_frame
FNDA:0,_RNvMNtCsksvoAhYmweA_7amp_gpu7surfaceNtB2_14SurfaceManager3new
FNDA:0,_RNvMNtCsksvoAhYmweA_7amp_gpu7surfaceNtB2_14SurfaceManager4size
FNDA:0,_RNvMNtCsksvoAhYmweA_7amp_gpu7surfaceNtB2_14SurfaceManager6format
FNDA:0,_RNvMNtCsksvoAhYmweA_7amp_gpu7surfaceNtB2_14SurfaceManager6resize
FNF:11
FNH:2
DA:19,0
DA:20,0
DA:21,0
DA:22,0
DA:23,0
DA:24,0
DA:26,0
DA:27,0
DA:28,0
DA:29,0
DA:30,0
DA:31,0
DA:32,0
DA:34,0
DA:35,0
DA:36,0
DA:37,0
DA:38,0
DA:39,0
DA:40,0
DA:41,0
DA:42,0
DA:43,0
DA:45,0
DA:47,0
DA:48,0
DA:49,0
DA:50,0
DA:51,0
DA:52,0
DA:55,0
DA:56,0
DA:57,0
DA:58,0
DA:59,0
DA:60,0
DA:61,0
DA:62,0
DA:65,0
DA:66,0
DA:67,0
DA:68,0
DA:69,0
DA:72,0
DA:73,0
DA:74,0
DA:75,0
DA:76,0
DA:77,0
DA:78,0
DA:79,0
DA:80,0
DA:81,0
DA:82,0
DA:83,0
DA:84,0
DA:85,0
DA:86,0
DA:87,0
DA:88,0
DA:89,0
DA:90,0
DA:91,0
DA:92,0
DA:95,0
DA:96,0
DA:97,0
DA:98,0
DA:99,0
DA:101,0
DA:102,0
DA:103,0
DA:104,0
DA:105,0
DA:107,0
DA:108,0
DA:109,0
DA:110,0
DA:111,0
DA:112,0
DA:113,0
DA:114,0
DA:115,0
DA:116,0
DA:117,0
DA:118,0
DA:120,0
DA:121,0
DA:123,0
DA:124,0
DA:127,0
DA:128,0
DA:129,0
DA:132,0
DA:133,0
DA:134,0
DA:142,1
DA:143,1
DA:144,1
DA:145,1
DA:146,1
DA:147,1
DA:148,1
DA:149,1
DA:150,1
DA:151,1
DA:152,1
DA:153,1
DA:156,1
DA:157,1
DA:158,1
DA:159,1
DA:160,1
DA:161,1
DA:162,1
DA:163,1
DA:164,1
DA:165,1
DA:166,1
DA:168,1
DA:169,1
DA:170,1
DA:171,1
BRF:0
BRH:0
LF:125
LH:27
end_of_record
SF:/Users/bradyjeong/Documents/Projects/Amp/gta4/gta_game/crates/amp_math/src/bounds.rs
FN:258,_RNvMNtCs161lwDAMhfG_8amp_math6boundsNtB2_4Aabb22expand_to_include_aabb
FN:91,_RNvMNtCs161lwDAMhfG_8amp_math6boundsNtB2_4Aabb8infinite
FN:433,_RNvXs1_NtCs161lwDAMhfG_8amp_math6boundsNtB5_6SphereNtNtCsd2KPTObkMr_4core7default7Default7default
FN:291,_RNvXs_NtCs161lwDAMhfG_8amp_math6boundsNtB4_4AabbNtNtCsd2KPTObkMr_4core7default7Default7default
FN:535,_RNvNtNtCs161lwDAMhfG_8amp_math6bounds5testss_14test_aabb_grow
FN:465,_RNvNtNtCs161lwDAMhfG_8amp_math6bounds5testss_15test_aabb_empty
FN:443,_RNvNtNtCs161lwDAMhfG_8amp_math6bounds5testss_18test_aabb_creation
FN:523,_RNvNtNtCs161lwDAMhfG_8amp_math6bounds5testss_19test_aabb_expansion
FN:472,_RNvNtNtCs161lwDAMhfG_8amp_math6bounds5testss_20test_aabb_properties
FN:543,_RNvNtNtCs161lwDAMhfG_8amp_math6bounds5testss_20test_sphere_creation
FN:592,_RNvNtNtCs161lwDAMhfG_8amp_math6bounds5testss_21test_sphere_expansion
FN:501,_RNvNtNtCs161lwDAMhfG_8amp_math6bounds5testss_22test_aabb_intersection
FN:450,_RNvNtNtCs161lwDAMhfG_8amp_math6bounds5testss_24test_aabb_swapped_bounds
FN:583,_RNvNtNtCs161lwDAMhfG_8amp_math6bounds5testss_24test_sphere_bounding_box
FN:573,_RNvNtNtCs161lwDAMhfG_8amp_math6bounds5testss_24test_sphere_intersection
FN:490,_RNvNtNtCs161lwDAMhfG_8amp_math6bounds5testss_26test_aabb_aabb_containment
FN:480,_RNvNtNtCs161lwDAMhfG_8amp_math6bounds5testss_27test_aabb_point_containment
FN:511,_RNvNtNtCs161lwDAMhfG_8amp_math6bounds5testss_29test_aabb_sphere_intersection
FN:553,_RNvNtNtCs161lwDAMhfG_8amp_math6bounds5testss_29test_sphere_point_containment
FN:562,_RNvNtNtCs161lwDAMhfG_8amp_math6bounds5testss_30test_sphere_sphere_containment
FN:457,_RNvNtNtCs161lwDAMhfG_8amp_math6bounds5testss_34test_aabb_from_center_half_extents
FN:139,_RNvMNtCs161lwDAMhfG_8amp_math6boundsNtB2_4Aabb12half_extents
FN:185,_RNvMNtCs161lwDAMhfG_8amp_math6boundsNtB2_4Aabb13contains_aabb
FN:169,_RNvMNtCs161lwDAMhfG_8amp_math6boundsNtB2_4Aabb14contains_point
FN:201,_RNvMNtCs161lwDAMhfG_8amp_math6boundsNtB2_4Aabb15intersects_aabb
FN:217,_RNvMNtCs161lwDAMhfG_8amp_math6boundsNtB2_4Aabb17intersects_sphere
FN:235,_RNvMNtCs161lwDAMhfG_8amp_math6boundsNtB2_4Aabb23expand_to_include_point
FN:58,_RNvMNtCs161lwDAMhfG_8amp_math6boundsNtB2_4Aabb24from_center_half_extents
FN:41,_RNvMNtCs161lwDAMhfG_8amp_math6boundsNtB2_4Aabb3new
FN:283,_RNvMNtCs161lwDAMhfG_8amp_math6boundsNtB2_4Aabb4grow
FN:124,_RNvMNtCs161lwDAMhfG_8amp_math6boundsNtB2_4Aabb4size
FN:75,_RNvMNtCs161lwDAMhfG_8amp_math6boundsNtB2_4Aabb5empty
FN:109,_RNvMNtCs161lwDAMhfG_8amp_math6boundsNtB2_4Aabb6center
FN:153,_RNvMNtCs161lwDAMhfG_8amp_math6boundsNtB2_4Aabb8is_empty
FN:386,_RNvMs0_NtCs161lwDAMhfG_8amp_math6boundsNtB5_6Sphere12bounding_box
FN:335,_RNvMs0_NtCs161lwDAMhfG_8amp_math6boundsNtB5_6Sphere14contains_point
FN:351,_RNvMs0_NtCs161lwDAMhfG_8amp_math6boundsNtB5_6Sphere15contains_sphere
FN:368,_RNvMs0_NtCs161lwDAMhfG_8amp_math6boundsNtB5_6Sphere17intersects_sphere
FN:403,_RNvMs0_NtCs161lwDAMhfG_8amp_math6boundsNtB5_6Sphere23expand_to_include_point
FN:423,_RNvMs0_NtCs161lwDAMhfG_8amp_math6boundsNtB5_6Sphere24expand_to_include_sphere
FN:316,_RNvMs0_NtCs161lwDAMhfG_8amp_math6boundsNtB5_6Sphere3new
FNDA:0,_RNvMNtCs161lwDAMhfG_8amp_math6boundsNtB2_4Aabb22expand_to_include_aabb
FNDA:0,_RNvMNtCs161lwDAMhfG_8amp_math6boundsNtB2_4Aabb8infinite
FNDA:0,_RNvXs1_NtCs161lwDAMhfG_8amp_math6boundsNtB5_6SphereNtNtCsd2KPTObkMr_4core7default7Default7default
FNDA:0,_RNvXs_NtCs161lwDAMhfG_8amp_math6boundsNtB4_4AabbNtNtCsd2KPTObkMr_4core7default7Default7default
FNDA:1,_RNvNtNtCs161lwDAMhfG_8amp_math6bounds5testss_14test_aabb_grow
FNDA:1,_RNvNtNtCs161lwDAMhfG_8amp_math6bounds5testss_15test_aabb_empty
FNDA:1,_RNvNtNtCs161lwDAMhfG_8amp_math6bounds5testss_18test_aabb_creation
FNDA:1,_RNvNtNtCs161lwDAMhfG_8amp_math6bounds5testss_19test_aabb_expansion
FNDA:1,_RNvNtNtCs161lwDAMhfG_8amp_math6bounds5testss_20test_aabb_properties
FNDA:1,_RNvNtNtCs161lwDAMhfG_8amp_math6bounds5testss_20test_sphere_creation
FNDA:1,_RNvNtNtCs161lwDAMhfG_8amp_math6bounds5testss_21test_sphere_expansion
FNDA:1,_RNvNtNtCs161lwDAMhfG_8amp_math6bounds5testss_22test_aabb_intersection
FNDA:1,_RNvNtNtCs161lwDAMhfG_8amp_math6bounds5testss_24test_aabb_swapped_bounds
FNDA:1,_RNvNtNtCs161lwDAMhfG_8amp_math6bounds5testss_24test_sphere_bounding_box
FNDA:1,_RNvNtNtCs161lwDAMhfG_8amp_math6bounds5testss_24test_sphere_intersection
FNDA:1,_RNvNtNtCs161lwDAMhfG_8amp_math6bounds5testss_26test_aabb_aabb_containment
FNDA:1,_RNvNtNtCs161lwDAMhfG_8amp_math6bounds5testss_27test_aabb_point_containment
FNDA:1,_RNvNtNtCs161lwDAMhfG_8amp_math6bounds5testss_29test_aabb_sphere_intersection
FNDA:1,_RNvNtNtCs161lwDAMhfG_8amp_math6bounds5testss_29test_sphere_point_containment
FNDA:1,_RNvNtNtCs161lwDAMhfG_8amp_math6bounds5testss_30test_sphere_sphere_containment
FNDA:1,_RNvNtNtCs161lwDAMhfG_8amp_math6bounds5testss_34test_aabb_from_center_half_extents
FNDA:1,_RNvMNtCs161lwDAMhfG_8amp_math6boundsNtB2_4Aabb12half_extents
FNDA:3,_RNvMNtCs161lwDAMhfG_8amp_math6boundsNtB2_4Aabb13contains_aabb
FNDA:5,_RNvMNtCs161lwDAMhfG_8amp_math6boundsNtB2_4Aabb14contains_point
FNDA:2,_RNvMNtCs161lwDAMhfG_8amp_math6boundsNtB2_4Aabb15intersects_aabb
FNDA:3,_RNvMNtCs161lwDAMhfG_8amp_math6boundsNtB2_4Aabb17intersects_sphere
FNDA:2,_RNvMNtCs161lwDAMhfG_8amp_math6boundsNtB2_4Aabb23expand_to_include_point
FNDA:1,_RNvMNtCs161lwDAMhfG_8amp_math6boundsNtB2_4Aabb24from_center_half_extents
FNDA:13,_RNvMNtCs161lwDAMhfG_8amp_math6boundsNtB2_4Aabb3new
FNDA:1,_RNvMNtCs161lwDAMhfG_8amp_math6boundsNtB2_4Aabb4grow
FNDA:2,_RNvMNtCs161lwDAMhfG_8amp_math6boundsNtB2_4Aabb4size
FNDA:2,_RNvMNtCs161lwDAMhfG_8amp_math6boundsNtB2_4Aabb5empty
FNDA:1,_RNvMNtCs161lwDAMhfG_8amp_math6boundsNtB2_4Aabb6center
FNDA:3,_RNvMNtCs161lwDAMhfG_8amp_math6boundsNtB2_4Aabb8is_empty
FNDA:1,_RNvMs0_NtCs161lwDAMhfG_8amp_math6boundsNtB5_6Sphere12bounding_box
FNDA:3,_RNvMs0_NtCs161lwDAMhfG_8amp_math6boundsNtB5_6Sphere14contains_point
FNDA:3,_RNvMs0_NtCs161lwDAMhfG_8amp_math6boundsNtB5_6Sphere15contains_sphere
FNDA:2,_RNvMs0_NtCs161lwDAMhfG_8amp_math6boundsNtB5_6Sphere17intersects_sphere
FNDA:1,_RNvMs0_NtCs161lwDAMhfG_8amp_math6boundsNtB5_6Sphere23expand_to_include_point
FNDA:1,_RNvMs0_NtCs161lwDAMhfG_8amp_math6boundsNtB5_6Sphere24expand_to_include_sphere
FNDA:15,_RNvMs0_NtCs161lwDAMhfG_8amp_math6boundsNtB5_6Sphere3new
FNF:41
FNH:37
DA:41,13
DA:42,13
DA:43,13
DA:44,13
DA:45,13
DA:46,13
DA:58,1
DA:59,1
DA:60,1
DA:61,1
DA:62,1
DA:63,1
DA:75,2
DA:76,2
DA:77,2
DA:78,2
DA:79,2
DA:80,2
DA:91,0
DA:92,0
DA:93,0
DA:94,0
DA:95,0
DA:96,0
DA:109,1
DA:110,1
DA:111,1
DA:124,2
DA:125,2
DA:126,2
DA:139,1
DA:140,1
DA:141,1
DA:153,3
DA:154,3
DA:155,3
DA:169,5
DA:170,5
DA:171,5
DA:185,3
DA:186,3
DA:187,3
DA:201,2
DA:202,2
DA:203,2
DA:217,3
DA:218,3
DA:219,3
DA:220,3
DA:221,3
DA:235,2
DA:236,2
DA:237,1
DA:238,1
DA:239,1
DA:240,1
DA:241,1
DA:242,1
DA:243,2
DA:258,0
DA:259,0
DA:260,0
DA:261,0
DA:263,0
DA:264,0
DA:265,0
DA:266,0
DA:267,0
DA:268,0
DA:269,0
DA:283,1
DA:284,1
DA:285,1
DA:286,1
DA:287,1
DA:291,0
DA:292,0
DA:293,0
DA:316,15
DA:317,15
DA:318,15
DA:319,15
DA:320,15
DA:321,15
DA:335,3
DA:336,3
DA:337,3
DA:351,3
DA:352,3
DA:353,3
DA:354,3
DA:368,2
DA:369,2
DA:370,2
DA:371,2
DA:372,2
DA:386,1
DA:387,1
DA:388,1
DA:389,1
DA:403,1
DA:404,1
DA:405,1
DA:406,1
DA:407,1
DA:408,1
DA:423,1
DA:424,1
DA:425,1
DA:426,1
DA:427,1
DA:428,1
DA:429,1
DA:433,0
DA:434,0
DA:435,0
DA:443,1
DA:444,1
DA:445,1
DA:446,1
DA:447,1
DA:450,1
DA:451,1
DA:452,1
DA:453,1
DA:454,1
DA:457,1
DA:458,1
DA:459,1
DA:460,1
DA:461,1
DA:462,1
DA:465,1
DA:466,1
DA:467,1
DA:468,1
DA:469,1
DA:472,1
DA:473,1
DA:474,1
DA:475,1
DA:476,1
DA:477,1
DA:480,1
DA:481,1
DA:483,1
DA:484,1
DA:485,1
DA:486,1
DA:487,1
DA:490,1
DA:491,1
DA:492,1
DA:493,1
DA:495,1
DA:496,1
DA:497,1
DA:498,1
DA:501,1
DA:502,1
DA:503,1
DA:504,1
DA:506,1
DA:507,1
DA:508,1
DA:511,1
DA:512,1
DA:513,1
DA:514,1
DA:515,1
DA:517,1
DA:518,1
DA:519,1
DA:520,1
DA:523,1
DA:524,1
DA:525,1
DA:526,1
DA:527,1
DA:529,1
DA:530,1
DA:531,1
DA:532,1
DA:535,1
DA:536,1
DA:537,1
DA:538,1
DA:539,1
DA:540,1
DA:543,1
DA:544,1
DA:545,1
DA:546,1
DA:548,1
DA:549,1
DA:550,1
DA:553,1
DA:554,1
DA:556,1
DA:557,1
DA:558,1
DA:559,1
DA:562,1
DA:563,1
DA:564,1
DA:565,1
DA:567,1
DA:568,1
DA:569,1
DA:570,1
DA:573,1
DA:574,1
DA:575,1
DA:576,1
DA:578,1
DA:579,1
DA:580,1
DA:583,1
DA:584,1
DA:585,1
DA:587,1
DA:588,1
DA:589,1
DA:592,1
DA:593,1
DA:594,1
DA:595,1
DA:597,1
DA:598,1
DA:599,1
DA:600,1
BRF:0
BRH:0
LF:231
LH:208
end_of_record
SF:/Users/bradyjeong/Documents/Projects/Amp/gta4/gta_game/crates/amp_math/src/morton.rs
FN:44,_RNvMNtCs161lwDAMhfG_8amp_math6mortonNtB2_8Morton2D14spread_bits_2d
FN:53,_RNvMNtCs161lwDAMhfG_8amp_math6mortonNtB2_8Morton2D15compact_bits_2d
FN:37,_RNvMNtCs161lwDAMhfG_8amp_math6mortonNtB2_8Morton2D6decode
FN:29,_RNvMNtCs161lwDAMhfG_8amp_math6mortonNtB2_8Morton2D6encode
FN:163,_RNvMs_NtCs161lwDAMhfG_8amp_math6mortonNtB4_8Morton3D11spread_bits
FN:172,_RNvMs_NtCs161lwDAMhfG_8amp_math6mortonNtB4_8Morton3D12compact_bits
FN:158,_RNvMs_NtCs161lwDAMhfG_8amp_math6mortonNtB4_8Morton3D15normalize_coord
FN:113,_RNvMs_NtCs161lwDAMhfG_8amp_math6mortonNtB4_8Morton3D17encode_normalized
FN:154,_RNvMs_NtCs161lwDAMhfG_8amp_math6mortonNtB4_8Morton3D20common_prefix_length
FN:133,_RNvMs_NtCs161lwDAMhfG_8amp_math6mortonNtB4_8Morton3D6decode
FN:96,_RNvMs_NtCs161lwDAMhfG_8amp_math6mortonNtB4_8Morton3D6encode
FN:70,_RNvNtCs161lwDAMhfG_8amp_math6morton16morton_decode_2d
FN:65,_RNvNtCs161lwDAMhfG_8amp_math6morton16morton_encode_2d
FN:239,_RNvNtNtCs161lwDAMhfG_8amp_math6morton5testss_13test_clamping
FN:305,_RNvNtNtCs161lwDAMhfG_8amp_math6morton5testss_14test_zero_case
FN:315,_RNvNtNtCs161lwDAMhfG_8amp_math6morton5testss_21test_bit_interleaving
FN:250,_RNvNtNtCs161lwDAMhfG_8amp_math6morton5testss_21test_spatial_locality
FN:228,_RNvNtNtCs161lwDAMhfG_8amp_math6morton5testss_22test_encode_normalized
FN:290,_RNvNtNtCs161lwDAMhfG_8amp_math6morton5testss_23test_max_coord_boundary
FN:279,_RNvNtNtCs161lwDAMhfG_8amp_math6morton5testss_24test_spread_compact_bits
FN:267,_RNvNtNtCs161lwDAMhfG_8amp_math6morton5testss_25test_common_prefix_length
FN:188,_RNvNtNtCs161lwDAMhfG_8amp_math6morton5testss_27test_encode_decode_identity
FN:327,_RNvNtNtCs161lwDAMhfG_8amp_math6morton5testss_28test_morton_2d_encode_decode
FN:354,_RNvNtNtCs161lwDAMhfG_8amp_math6morton5testss_31test_morton_2d_spatial_locality
FN:345,_RNvNtNtCs161lwDAMhfG_8amp_math6morton5testss_36test_morton_2d_convenience_functions
FN:44,_RNvMNtCsjDIkrePVzAz_8amp_math6mortonNtB2_8Morton2D14spread_bits_2d
FN:53,_RNvMNtCsjDIkrePVzAz_8amp_math6mortonNtB2_8Morton2D15compact_bits_2d
FN:37,_RNvMNtCsjDIkrePVzAz_8amp_math6mortonNtB2_8Morton2D6decode
FN:29,_RNvMNtCsjDIkrePVzAz_8amp_math6mortonNtB2_8Morton2D6encode
FN:163,_RNvMs_NtCsjDIkrePVzAz_8amp_math6mortonNtB4_8Morton3D11spread_bits
FN:172,_RNvMs_NtCsjDIkrePVzAz_8amp_math6mortonNtB4_8Morton3D12compact_bits
FN:158,_RNvMs_NtCsjDIkrePVzAz_8amp_math6mortonNtB4_8Morton3D15normalize_coord
FN:113,_RNvMs_NtCsjDIkrePVzAz_8amp_math6mortonNtB4_8Morton3D17encode_normalized
FN:154,_RNvMs_NtCsjDIkrePVzAz_8amp_math6mortonNtB4_8Morton3D20common_prefix_length
FN:133,_RNvMs_NtCsjDIkrePVzAz_8amp_math6mortonNtB4_8Morton3D6decode
FN:96,_RNvMs_NtCsjDIkrePVzAz_8amp_math6mortonNtB4_8Morton3D6encode
FN:70,_RNvNtCsjDIkrePVzAz_8amp_math6morton16morton_decode_2d
FN:65,_RNvNtCsjDIkrePVzAz_8amp_math6morton16morton_encode_2d
FNDA:18,_RNvMNtCs161lwDAMhfG_8amp_math6mortonNtB2_8Morton2D14spread_bits_2d
FNDA:12,_RNvMNtCs161lwDAMhfG_8amp_math6mortonNtB2_8Morton2D15compact_bits_2d
FNDA:6,_RNvMNtCs161lwDAMhfG_8amp_math6mortonNtB2_8Morton2D6decode
FNDA:9,_RNvMNtCs161lwDAMhfG_8amp_math6mortonNtB2_8Morton2D6encode
FNDA:52,_RNvMs_NtCs161lwDAMhfG_8amp_math6mortonNtB4_8Morton3D11spread_bits
FNDA:34,_RNvMs_NtCs161lwDAMhfG_8amp_math6mortonNtB4_8Morton3D12compact_bits
FNDA:33,_RNvMs_NtCs161lwDAMhfG_8amp_math6mortonNtB4_8Morton3D15normalize_coord
FNDA:15,_RNvMs_NtCs161lwDAMhfG_8amp_math6mortonNtB4_8Morton3D17encode_normalized
FNDA:2,_RNvMs_NtCs161lwDAMhfG_8amp_math6mortonNtB4_8Morton3D20common_prefix_length
FNDA:9,_RNvMs_NtCs161lwDAMhfG_8amp_math6mortonNtB4_8Morton3D6decode
FNDA:11,_RNvMs_NtCs161lwDAMhfG_8amp_math6mortonNtB4_8Morton3D6encode
FNDA:1,_RNvNtCs161lwDAMhfG_8amp_math6morton16morton_decode_2d
FNDA:1,_RNvNtCs161lwDAMhfG_8amp_math6morton16morton_encode_2d
FNDA:1,_RNvNtNtCs161lwDAMhfG_8amp_math6morton5testss_13test_clamping
FNDA:1,_RNvNtNtCs161lwDAMhfG_8amp_math6morton5testss_14test_zero_case
FNDA:1,_RNvNtNtCs161lwDAMhfG_8amp_math6morton5testss_21test_bit_interleaving
FNDA:1,_RNvNtNtCs161lwDAMhfG_8amp_math6morton5testss_21test_spatial_locality
FNDA:1,_RNvNtNtCs161lwDAMhfG_8amp_math6morton5testss_22test_encode_normalized
FNDA:1,_RNvNtNtCs161lwDAMhfG_8amp_math6morton5testss_23test_max_coord_boundary
FNDA:1,_RNvNtNtCs161lwDAMhfG_8amp_math6morton5testss_24test_spread_compact_bits
FNDA:1,_RNvNtNtCs161lwDAMhfG_8amp_math6morton5testss_25test_common_prefix_length
FNDA:1,_RNvNtNtCs161lwDAMhfG_8amp_math6morton5testss_27test_encode_decode_identity
FNDA:1,_RNvNtNtCs161lwDAMhfG_8amp_math6morton5testss_28test_morton_2d_encode_decode
FNDA:1,_RNvNtNtCs161lwDAMhfG_8amp_math6morton5testss_31test_morton_2d_spatial_locality
FNDA:1,_RNvNtNtCs161lwDAMhfG_8amp_math6morton5testss_36test_morton_2d_convenience_functions
FNDA:192692,_RNvMNtCsjDIkrePVzAz_8amp_math6mortonNtB2_8Morton2D14spread_bits_2d
FNDA:42,_RNvMNtCsjDIkrePVzAz_8amp_math6mortonNtB2_8Morton2D15compact_bits_2d
FNDA:21,_RNvMNtCsjDIkrePVzAz_8amp_math6mortonNtB2_8Morton2D6decode
FNDA:96346,_RNvMNtCsjDIkrePVzAz_8amp_math6mortonNtB2_8Morton2D6encode
FNDA:0,_RNvMs_NtCsjDIkrePVzAz_8amp_math6mortonNtB4_8Morton3D11spread_bits
FNDA:0,_RNvMs_NtCsjDIkrePVzAz_8amp_math6mortonNtB4_8Morton3D12compact_bits
FNDA:0,_RNvMs_NtCsjDIkrePVzAz_8amp_math6mortonNtB4_8Morton3D15normalize_coord
FNDA:0,_RNvMs_NtCsjDIkrePVzAz_8amp_math6mortonNtB4_8Morton3D17encode_normalized
FNDA:0,_RNvMs_NtCsjDIkrePVzAz_8amp_math6mortonNtB4_8Morton3D20common_prefix_length
FNDA:0,_RNvMs_NtCsjDIkrePVzAz_8amp_math6mortonNtB4_8Morton3D6decode
FNDA:0,_RNvMs_NtCsjDIkrePVzAz_8amp_math6mortonNtB4_8Morton3D6encode
FNDA:21,_RNvNtCsjDIkrePVzAz_8amp_math6morton16morton_decode_2d
FNDA:96346,_RNvNtCsjDIkrePVzAz_8amp_math6morton16morton_encode_2d
FNF:25
FNH:25
DA:29,96355
DA:30,96355
DA:31,96355
DA:33,96355
DA:34,96355
DA:37,27
DA:38,27
DA:39,27
DA:41,27
DA:42,27
DA:44,192710
DA:45,192710
DA:46,192710
DA:47,192710
DA:48,192710
DA:49,192710
DA:50,192710
DA:51,192710
DA:53,54
DA:54,54
DA:55,54
DA:56,54
DA:57,54
DA:58,54
DA:59,54
DA:60,54
DA:61,54
DA:65,96347
DA:66,96347
DA:67,96347
DA:70,22
DA:71,22
DA:72,22
DA:96,11
DA:97,11
DA:98,11
DA:99,11
DA:101,11
DA:102,11
DA:113,15
DA:114,15
DA:115,15
DA:116,15
DA:118,15
DA:119,15
DA:133,9
DA:134,9
DA:135,9
DA:136,9
DA:138,9
DA:139,9
DA:154,2
DA:155,2
DA:156,2
DA:158,33
DA:159,33
DA:160,33
DA:161,33
DA:163,52
DA:164,52
DA:165,52
DA:166,52
DA:167,52
DA:168,52
DA:169,52
DA:170,52
DA:172,34
DA:173,34
DA:174,34
DA:175,34
DA:176,34
DA:177,34
DA:178,34
DA:179,34
DA:180,34
DA:188,1
DA:189,1
DA:190,1
DA:191,1
DA:192,1
DA:193,1
DA:194,1
DA:195,1
DA:196,1
DA:197,1
DA:201,6
DA:202,5
DA:203,5
DA:206,5
DA:207,5
DA:208,0
DA:212,5
DA:213,5
DA:214,0
DA:218,5
DA:219,5
DA:220,0
DA:225,1
DA:228,1
DA:229,1
DA:230,1
DA:232,1
DA:233,1
DA:234,1
DA:235,1
DA:236,1
DA:239,1
DA:240,1
DA:241,1
DA:242,1
DA:244,1
DA:245,1
DA:246,1
DA:247,1
DA:250,1
DA:251,1
DA:252,1
DA:253,1
DA:255,1
DA:256,1
DA:257,1
DA:260,1
DA:261,1
DA:263,1
DA:264,1
DA:267,1
DA:268,1
DA:269,1
DA:271,1
DA:272,1
DA:274,1
DA:275,1
DA:276,1
DA:279,1
DA:280,1
DA:282,8
DA:283,7
DA:284,7
DA:285,7
DA:287,1
DA:290,1
DA:291,1
DA:292,1
DA:293,1
DA:294,1
DA:296,1
DA:297,1
DA:299,1
DA:300,1
DA:301,1
DA:302,1
DA:305,1
DA:306,1
DA:307,1
DA:308,1
DA:310,1
DA:311,1
DA:312,1
DA:315,1
DA:317,1
DA:322,1
DA:323,1
DA:324,1
DA:327,1
DA:328,1
DA:329,1
DA:330,1
DA:331,1
DA:332,1
DA:333,1
DA:336,6
DA:337,5
DA:338,5
DA:339,5
DA:340,5
DA:342,1
DA:345,1
DA:346,1
DA:347,1
DA:348,1
DA:349,1
DA:350,1
DA:351,1
DA:354,1
DA:355,1
DA:356,1
DA:357,1
DA:360,1
DA:361,1
DA:363,1
DA:364,1
BRF:0
BRH:0
LF:191
LH:188
end_of_record
SF:/Users/bradyjeong/Documents/Projects/Amp/gta4/gta_game/crates/amp_math/src/transforms.rs
FN:95,_RNvMNtCs161lwDAMhfG_8amp_math10transformsNtB2_9Transform10from_scale
FN:278,_RNvMNtCs161lwDAMhfG_8amp_math10transformsNtB2_9Transform19transform_direction
FN:382,_RNvXs0_NtCs161lwDAMhfG_8amp_math10transformsNtB5_9TransformINtNtCsd2KPTObkMr_4core7convert4FromNtNtNtNtCs9vJwvnAbvtE_4glam3f324neon4mat44Mat4E4from
FN:388,_RNvXs1_NtCs161lwDAMhfG_8amp_math10transformsNtNtNtNtCs9vJwvnAbvtE_4glam3f324neon4mat44Mat4INtNtCsd2KPTObkMr_4core7convert4FromNtB5_9TransformE4from
FN:376,_RNvXs_NtCs161lwDAMhfG_8amp_math10transformsNtB4_9TransformNtNtCsd2KPTObkMr_4core7default7Default7default
FN:585,_RNvNtNtCs161lwDAMhfG_8amp_math10transforms5testss_19test_transform_lerp
FN:534,_RNvNtNtCs161lwDAMhfG_8amp_math10transforms5testss_20test_transform_point
FN:594,_RNvNtNtCs161lwDAMhfG_8amp_math10transforms5testss_20test_transform_slerp
FN:606,_RNvNtNtCs161lwDAMhfG_8amp_math10transforms5testss_21test_camera_transform
FN:574,_RNvNtNtCs161lwDAMhfG_8amp_math10transforms5testss_22test_transform_inverse
FN:565,_RNvNtNtCs161lwDAMhfG_8amp_math10transforms5testss_22test_transform_look_at
FN:501,_RNvNtNtCs161lwDAMhfG_8amp_math10transforms5testss_23test_transform_identity
FN:625,_RNvNtNtCs161lwDAMhfG_8amp_math10transforms5testss_30test_transform_builder_pattern
FN:509,_RNvNtNtCs161lwDAMhfG_8amp_math10transforms5testss_31test_transform_from_translation
FN:542,_RNvNtNtCs161lwDAMhfG_8amp_math10transforms5testss_32test_transform_direction_vectors
FN:518,_RNvNtNtCs161lwDAMhfG_8amp_math10transforms5testss_32test_transform_matrix_conversion
FN:185,_RNvMNtCs161lwDAMhfG_8amp_math10transformsNtB2_9Transform10with_scale
FN:136,_RNvMNtCs161lwDAMhfG_8amp_math10transformsNtB2_9Transform11from_matrix
FN:77,_RNvMNtCs161lwDAMhfG_8amp_math10transformsNtB2_9Transform13from_rotation
FN:313,_RNvMNtCs161lwDAMhfG_8amp_math10transformsNtB2_9Transform13mul_transform
FN:170,_RNvMNtCs161lwDAMhfG_8amp_math10transformsNtB2_9Transform13with_rotation
FN:262,_RNvMNtCs161lwDAMhfG_8amp_math10transformsNtB2_9Transform15transform_point
FN:59,_RNvMNtCs161lwDAMhfG_8amp_math10transformsNtB2_9Transform16from_translation
FN:155,_RNvMNtCs161lwDAMhfG_8amp_math10transformsNtB2_9Transform16with_translation
FN:246,_RNvMNtCs161lwDAMhfG_8amp_math10transformsNtB2_9Transform2up
FN:346,_RNvMNtCs161lwDAMhfG_8amp_math10transformsNtB2_9Transform4lerp
FN:231,_RNvMNtCs161lwDAMhfG_8amp_math10transformsNtB2_9Transform5right
FN:366,_RNvMNtCs161lwDAMhfG_8amp_math10transformsNtB2_9Transform5slerp
FN:216,_RNvMNtCs161lwDAMhfG_8amp_math10transformsNtB2_9Transform7forward
FN:329,_RNvMNtCs161lwDAMhfG_8amp_math10transformsNtB2_9Transform7inverse
FN:293,_RNvMNtCs161lwDAMhfG_8amp_math10transformsNtB2_9Transform7look_at
FN:117,_RNvMNtCs161lwDAMhfG_8amp_math10transformsNtB2_9Transform8from_trs
FN:41,_RNvMNtCs161lwDAMhfG_8amp_math10transformsNtB2_9Transform8identity
FN:201,_RNvMNtCs161lwDAMhfG_8amp_math10transformsNtB2_9Transform9to_matrix
FN:450,_RNvMs2_NtCs161lwDAMhfG_8amp_math10transformsNtB5_15CameraTransform11view_matrix
FN:470,_RNvMs2_NtCs161lwDAMhfG_8amp_math10transformsNtB5_15CameraTransform17projection_matrix
FN:490,_RNvMs2_NtCs161lwDAMhfG_8amp_math10transformsNtB5_15CameraTransform22view_projection_matrix
FN:424,_RNvMs2_NtCs161lwDAMhfG_8amp_math10transformsNtB5_15CameraTransform3new
FNDA:0,_RNvMNtCs161lwDAMhfG_8amp_math10transformsNtB2_9Transform10from_scale
FNDA:0,_RNvMNtCs161lwDAMhfG_8amp_math10transformsNtB2_9Transform19transform_direction
FNDA:0,_RNvXs0_NtCs161lwDAMhfG_8amp_math10transformsNtB5_9TransformINtNtCsd2KPTObkMr_4core7convert4FromNtNtNtNtCs9vJwvnAbvtE_4glam3f324neon4mat44Mat4E4from
FNDA:0,_RNvXs1_NtCs161lwDAMhfG_8amp_math10transformsNtNtNtNtCs9vJwvnAbvtE_4glam3f324neon4mat44Mat4INtNtCsd2KPTObkMr_4core7convert4FromNtB5_9TransformE4from
FNDA:0,_RNvXs_NtCs161lwDAMhfG_8amp_math10transformsNtB4_9TransformNtNtCsd2KPTObkMr_4core7default7Default7default
FNDA:1,_RNvNtNtCs161lwDAMhfG_8amp_math10transforms5testss_19test_transform_lerp
FNDA:1,_RNvNtNtCs161lwDAMhfG_8amp_math10transforms5testss_20test_transform_point
FNDA:1,_RNvNtNtCs161lwDAMhfG_8amp_math10transforms5testss_20test_transform_slerp
FNDA:1,_RNvNtNtCs161lwDAMhfG_8amp_math10transforms5testss_21test_camera_transform
FNDA:1,_RNvNtNtCs161lwDAMhfG_8amp_math10transforms5testss_22test_transform_inverse
FNDA:1,_RNvNtNtCs161lwDAMhfG_8amp_math10transforms5testss_22test_transform_look_at
FNDA:1,_RNvNtNtCs161lwDAMhfG_8amp_math10transforms5testss_23test_transform_identity
FNDA:1,_RNvNtNtCs161lwDAMhfG_8amp_math10transforms5testss_30test_transform_builder_pattern
FNDA:1,_RNvNtNtCs161lwDAMhfG_8amp_math10transforms5testss_31test_transform_from_translation
FNDA:1,_RNvNtNtCs161lwDAMhfG_8amp_math10transforms5testss_32test_transform_direction_vectors
FNDA:1,_RNvNtNtCs161lwDAMhfG_8amp_math10transforms5testss_32test_transform_matrix_conversion
FNDA:1,_RNvMNtCs161lwDAMhfG_8amp_math10transformsNtB2_9Transform10with_scale
FNDA:3,_RNvMNtCs161lwDAMhfG_8amp_math10transformsNtB2_9Transform11from_matrix
FNDA:3,_RNvMNtCs161lwDAMhfG_8amp_math10transformsNtB2_9Transform13from_rotation
FNDA:1,_RNvMNtCs161lwDAMhfG_8amp_math10transformsNtB2_9Transform13mul_transform
FNDA:1,_RNvMNtCs161lwDAMhfG_8amp_math10transformsNtB2_9Transform13with_rotation
FNDA:1,_RNvMNtCs161lwDAMhfG_8amp_math10transformsNtB2_9Transform15transform_point
FNDA:6,_RNvMNtCs161lwDAMhfG_8amp_math10transformsNtB2_9Transform16from_translation
FNDA:1,_RNvMNtCs161lwDAMhfG_8amp_math10transformsNtB2_9Transform16with_translation
FNDA:1,_RNvMNtCs161lwDAMhfG_8amp_math10transformsNtB2_9Transform2up
FNDA:1,_RNvMNtCs161lwDAMhfG_8amp_math10transformsNtB2_9Transform4lerp
FNDA:1,_RNvMNtCs161lwDAMhfG_8amp_math10transformsNtB2_9Transform5right
FNDA:1,_RNvMNtCs161lwDAMhfG_8amp_math10transformsNtB2_9Transform5slerp
FNDA:2,_RNvMNtCs161lwDAMhfG_8amp_math10transformsNtB2_9Transform7forward
FNDA:1,_RNvMNtCs161lwDAMhfG_8amp_math10transformsNtB2_9Transform7inverse
FNDA:1,_RNvMNtCs161lwDAMhfG_8amp_math10transformsNtB2_9Transform7look_at
FNDA:1,_RNvMNtCs161lwDAMhfG_8amp_math10transformsNtB2_9Transform8from_trs
FNDA:3,_RNvMNtCs161lwDAMhfG_8amp_math10transformsNtB2_9Transform8identity
FNDA:7,_RNvMNtCs161lwDAMhfG_8amp_math10transformsNtB2_9Transform9to_matrix
FNDA:2,_RNvMs2_NtCs161lwDAMhfG_8amp_math10transformsNtB5_15CameraTransform11view_matrix
FNDA:2,_RNvMs2_NtCs161lwDAMhfG_8amp_math10transformsNtB5_15CameraTransform17projection_matrix
FNDA:1,_RNvMs2_NtCs161lwDAMhfG_8amp_math10transformsNtB5_15CameraTransform22view_projection_matrix
FNDA:1,_RNvMs2_NtCs161lwDAMhfG_8amp_math10transformsNtB5_15CameraTransform3new
FNF:38
FNH:33
DA:41,3
DA:42,3
DA:43,3
DA:44,3
DA:45,3
DA:46,3
DA:47,3
DA:59,6
DA:60,6
DA:61,6
DA:62,6
DA:63,6
DA:64,6
DA:65,6
DA:77,3
DA:78,3
DA:79,3
DA:80,3
DA:81,3
DA:82,3
DA:83,3
DA:95,0
DA:96,0
DA:97,0
DA:98,0
DA:99,0
DA:100,0
DA:101,0
DA:117,1
DA:118,1
DA:119,1
DA:120,1
DA:121,1
DA:122,1
DA:123,1
DA:136,3
DA:137,3
DA:138,3
DA:139,3
DA:140,3
DA:141,3
DA:142,3
DA:143,3
DA:155,1
DA:156,1
DA:157,1
DA:158,1
DA:170,1
DA:171,1
DA:172,1
DA:173,1
DA:185,1
DA:186,1
DA:187,1
DA:188,1
DA:201,7
DA:202,7
DA:203,7
DA:216,2
DA:217,2
DA:218,2
DA:231,1
DA:232,1
DA:233,1
DA:246,1
DA:247,1
DA:248,1
DA:262,1
DA:263,1
DA:264,1
DA:278,0
DA:279,0
DA:280,0
DA:293,1
DA:294,1
DA:295,1
DA:296,1
DA:298,1
DA:299,1
DA:313,1
DA:314,1
DA:315,1
DA:316,1
DA:329,1
DA:330,1
DA:331,1
DA:332,1
DA:346,1
DA:347,1
DA:348,1
DA:349,1
DA:350,1
DA:351,1
DA:352,1
DA:366,1
DA:367,1
DA:368,1
DA:369,1
DA:370,1
DA:371,1
DA:372,1
DA:376,0
DA:377,0
DA:378,0
DA:382,0
DA:383,0
DA:384,0
DA:388,0
DA:389,0
DA:390,0
DA:424,1
DA:425,1
DA:426,1
DA:427,1
DA:428,1
DA:429,1
DA:430,1
DA:431,1
DA:432,1
DA:450,2
DA:451,2
DA:452,2
DA:470,2
DA:471,2
DA:472,2
DA:490,1
DA:491,1
DA:492,1
DA:501,1
DA:502,1
DA:503,1
DA:504,1
DA:505,1
DA:506,1
DA:509,1
DA:510,1
DA:511,1
DA:512,1
DA:513,1
DA:514,1
DA:515,1
DA:518,1
DA:519,1
DA:520,1
DA:521,1
DA:522,1
DA:525,1
DA:526,1
DA:528,1
DA:529,1
DA:530,1
DA:531,1
DA:534,1
DA:535,1
DA:536,1
DA:537,1
DA:538,1
DA:539,1
DA:542,1
DA:543,1
DA:545,1
DA:546,1
DA:547,1
DA:550,1
DA:554,1
DA:555,1
DA:556,1
DA:559,1
DA:560,1
DA:561,1
DA:562,1
DA:565,1
DA:566,1
DA:567,1
DA:569,1
DA:570,1
DA:571,1
DA:574,1
DA:575,1
DA:576,1
DA:577,1
DA:579,1
DA:580,1
DA:581,1
DA:582,1
DA:585,1
DA:586,1
DA:587,1
DA:588,1
DA:590,1
DA:591,1
DA:594,1
DA:595,1
DA:596,1
DA:597,1
DA:600,1
DA:601,1
DA:602,1
DA:603,1
DA:606,1
DA:607,1
DA:608,1
DA:609,1
DA:612,1
DA:615,1
DA:616,1
DA:617,1
DA:619,1
DA:620,1
DA:621,1
DA:622,1
DA:625,1
DA:626,1
DA:627,1
DA:628,1
DA:629,1
DA:631,1
DA:632,1
DA:633,1
DA:634,1
BRF:0
BRH:0
LF:220
LH:201
end_of_record
SF:/Users/bradyjeong/Documents/Projects/Amp/gta4/gta_game/crates/amp_spatial/src/clipmap.rs
FN:109,_RNvMs_NtCs4uPOfESYL58_11amp_spatial7clipmapNtB4_19HierarchicalClipmap11new_default
FN:123,_RNvMs_NtCs4uPOfESYL58_11amp_spatial7clipmapNtB4_19HierarchicalClipmap13update_center
FN:200,_RNvMs_NtCs4uPOfESYL58_11amp_spatial7clipmapNtB4_19HierarchicalClipmap14get_level_size
FN:154,_RNvMs_NtCs4uPOfESYL58_11amp_spatial7clipmapNtB4_19HierarchicalClipmap18get_active_regions
FN:212,_RNvMs_NtCs4uPOfESYL58_11amp_spatial7clipmapNtB4_19HierarchicalClipmap18should_load_region
FN:183,_RNvMs_NtCs4uPOfESYL58_11amp_spatial7clipmapNtB4_19HierarchicalClipmap19calculate_lod_level
FN:223,_RNvMs_NtCs4uPOfESYL58_11amp_spatial7clipmapNtB4_19HierarchicalClipmap21update_active_regions
FN:166,_RNvMs_NtCs4uPOfESYL58_11amp_spatial7clipmapNtB4_19HierarchicalClipmap22get_all_active_regions
FN:86,_RNvMs_NtCs4uPOfESYL58_11amp_spatial7clipmapNtB4_19HierarchicalClipmap3new
FN:138,_RNvMs_NtCs4uPOfESYL58_11amp_spatial7clipmapNtB4_19HierarchicalClipmap6center
FN:143,_RNvMs_NtCs4uPOfESYL58_11amp_spatial7clipmapNtB4_19HierarchicalClipmap6config
FN:50,_RNvXNtCs4uPOfESYL58_11amp_spatial7clipmapNtB2_13ClipmapConfigNtNtCsd2KPTObkMr_4core7default7Default7default
FN:345,_RNCNvNtNtCs4uPOfESYL58_11amp_spatial7clipmap5testss_27test_get_all_active_regions0B7_
FN:351,_RNvNtNtCs4uPOfESYL58_11amp_spatial7clipmap5testss_23test_should_load_region
FN:277,_RNvNtNtCs4uPOfESYL58_11amp_spatial7clipmap5testss_26test_clipmap_update_center
FN:364,_RNvNtNtCs4uPOfESYL58_11amp_spatial7clipmap5testss_26test_custom_clipmap_config
FN:292,_RNvNtNtCs4uPOfESYL58_11amp_spatial7clipmap5testss_26test_lod_level_calculation
FN:260,_RNvNtNtCs4uPOfESYL58_11amp_spatial7clipmap5testss_27test_clipmap_config_default
FN:335,_RNvNtNtCs4uPOfESYL58_11amp_spatial7clipmap5testss_27test_get_all_active_regions
FN:306,_RNvNtNtCs4uPOfESYL58_11amp_spatial7clipmap5testss_27test_level_size_calculation
FN:321,_RNvNtNtCs4uPOfESYL58_11amp_spatial7clipmap5testss_34test_active_regions_initialization
FN:268,_RNvNtNtCs4uPOfESYL58_11amp_spatial7clipmap5testss_34test_hierarchical_clipmap_creation
FNDA:7,_RNvMs_NtCs4uPOfESYL58_11amp_spatial7clipmapNtB4_19HierarchicalClipmap11new_default
FNDA:2,_RNvMs_NtCs4uPOfESYL58_11amp_spatial7clipmapNtB4_19HierarchicalClipmap13update_center
FNDA:73,_RNvMs_NtCs4uPOfESYL58_11amp_spatial7clipmapNtB4_19HierarchicalClipmap14get_level_size
FNDA:8,_RNvMs_NtCs4uPOfESYL58_11amp_spatial7clipmapNtB4_19HierarchicalClipmap18get_active_regions
FNDA:2,_RNvMs_NtCs4uPOfESYL58_11amp_spatial7clipmapNtB4_19HierarchicalClipmap18should_load_region
FNDA:5,_RNvMs_NtCs4uPOfESYL58_11amp_spatial7clipmapNtB4_19HierarchicalClipmap19calculate_lod_level
FNDA:9,_RNvMs_NtCs4uPOfESYL58_11amp_spatial7clipmapNtB4_19HierarchicalClipmap21update_active_regions
FNDA:1,_RNvMs_NtCs4uPOfESYL58_11amp_spatial7clipmapNtB4_19HierarchicalClipmap22get_all_active_regions
FNDA:8,_RNvMs_NtCs4uPOfESYL58_11amp_spatial7clipmapNtB4_19HierarchicalClipmap3new
FNDA:3,_RNvMs_NtCs4uPOfESYL58_11amp_spatial7clipmapNtB4_19HierarchicalClipmap6center
FNDA:3,_RNvMs_NtCs4uPOfESYL58_11amp_spatial7clipmapNtB4_19HierarchicalClipmap6config
FNDA:8,_RNvXNtCs4uPOfESYL58_11amp_spatial7clipmapNtB2_13ClipmapConfigNtNtCsd2KPTObkMr_4core7default7Default7default
FNDA:8712,_RNCNvNtNtCs4uPOfESYL58_11amp_spatial7clipmap5testss_27test_get_all_active_regions0B7_
FNDA:1,_RNvNtNtCs4uPOfESYL58_11amp_spatial7clipmap5testss_23test_should_load_region
FNDA:1,_RNvNtNtCs4uPOfESYL58_11amp_spatial7clipmap5testss_26test_clipmap_update_center
FNDA:1,_RNvNtNtCs4uPOfESYL58_11amp_spatial7clipmap5testss_26test_custom_clipmap_config
FNDA:1,_RNvNtNtCs4uPOfESYL58_11amp_spatial7clipmap5testss_26test_lod_level_calculation
FNDA:1,_RNvNtNtCs4uPOfESYL58_11amp_spatial7clipmap5testss_27test_clipmap_config_default
FNDA:1,_RNvNtNtCs4uPOfESYL58_11amp_spatial7clipmap5testss_27test_get_all_active_regions
FNDA:1,_RNvNtNtCs4uPOfESYL58_11amp_spatial7clipmap5testss_27test_level_size_calculation
FNDA:1,_RNvNtNtCs4uPOfESYL58_11amp_spatial7clipmap5testss_34test_active_regions_initialization
FNDA:1,_RNvNtNtCs4uPOfESYL58_11amp_spatial7clipmap5testss_34test_hierarchical_clipmap_creation
FNF:22
FNH:22
DA:50,8
DA:51,8
DA:52,8
DA:53,8
DA:54,8
DA:55,8
DA:56,8
DA:57,8
DA:58,8
DA:59,8
DA:60,8
DA:86,8
DA:87,8
DA:88,60
DA:89,60
DA:90,60
DA:92,8
DA:93,8
DA:94,8
DA:95,8
DA:96,8
DA:97,8
DA:100,8
DA:102,8
DA:103,8
DA:109,7
DA:110,7
DA:111,7
DA:123,2
DA:124,2
DA:125,2
DA:127,2
DA:128,1
DA:129,1
DA:130,1
DA:131,1
DA:133,1
DA:135,2
DA:138,3
DA:139,3
DA:140,3
DA:143,3
DA:144,3
DA:145,3
DA:154,8
DA:155,8
DA:156,8
DA:158,0
DA:160,8
DA:166,1
DA:167,1
DA:168,8
DA:169,8720
DA:170,8712
DA:171,8712
DA:173,1
DA:174,1
DA:183,5
DA:184,5
DA:185,1
DA:186,4
DA:188,4
DA:189,4
DA:190,4
DA:191,5
DA:200,73
DA:201,73
DA:202,73
DA:212,2
DA:213,2
DA:214,1
DA:215,1
DA:219,1
DA:220,2
DA:223,9
DA:227,68
DA:228,68
DA:231,68
DA:232,68
DA:235,68
DA:236,68
DA:239,68
DA:240,4228
DA:241,271556
DA:242,271556
DA:243,271556
DA:245,271556
DA:246,96307
DA:247,96307
DA:248,175249
DA:252,9
DA:260,1
DA:261,1
DA:262,1
DA:263,1
DA:264,1
DA:265,1
DA:268,1
DA:269,1
DA:270,1
DA:272,1
DA:273,1
DA:274,1
DA:277,1
DA:278,1
DA:281,1
DA:282,1
DA:283,1
DA:286,1
DA:287,1
DA:288,1
DA:289,1
DA:292,1
DA:293,1
DA:296,1
DA:297,1
DA:298,1
DA:299,1
DA:302,1
DA:303,1
DA:306,1
DA:307,1
DA:309,1
DA:310,1
DA:311,1
DA:314,1
DA:315,1
DA:318,1
DA:321,1
DA:322,1
DA:325,9
DA:326,8
DA:328,8
DA:329,8
DA:330,0
DA:332,1
DA:335,1
DA:336,1
DA:337,1
DA:340,1
DA:343,1
DA:344,1
DA:345,8712
DA:346,1
DA:347,1
DA:348,1
DA:351,1
DA:352,1
DA:355,1
DA:358,1
DA:361,1
DA:364,1
DA:365,1
DA:366,1
DA:367,1
DA:368,1
DA:369,1
DA:370,1
DA:371,1
DA:372,1
DA:373,1
DA:375,1
DA:376,1
DA:377,1
DA:378,1
DA:379,1
DA:380,1
BRF:0
BRH:0
LF:168
LH:166
end_of_record
SF:/Users/bradyjeong/Documents/Projects/Amp/gta4/gta_game/crates/amp_spatial/src/provider.rs
FN:127,_RNvMNtCs4uPOfESYL58_11amp_spatial8providerINtB2_20MemoryRegionProviderpE12loaded_countB4_
FN:122,_RNvMNtCs4uPOfESYL58_11amp_spatial8providerINtB2_20MemoryRegionProviderpE12region_countB4_
FN:133,_RNvXININtCs4uPOfESYL58_11amp_spatial8providers_0pEINtB5_20MemoryRegionProviderpENtNtCsd2KPTObkMr_4core7default7Default7defaultB7_
FN:360,_RNCNvNtNtCs4uPOfESYL58_11amp_spatial8provider5testss_34test_file_provider_path_generation0B7_
FN:369,_RNCNvNtNtCs4uPOfESYL58_11amp_spatial8provider5testss_35test_file_provider_basic_operations0B7_
FN:347,_RNCNvNtNtCs4uPOfESYL58_11amp_spatial8provider5testss_35test_memory_provider_error_handling0B7_
FN:316,_RNCNvNtNtCs4uPOfESYL58_11amp_spatial8provider5testss_37test_memory_provider_basic_operations0B7_
FN:191,_RINvMs0_NtCs4uPOfESYL58_11amp_spatial8providerNtB6_18FileRegionProvider3newReEB8_
FN:255,_RNCNCNCNvXs5_NtCs4uPOfESYL58_11amp_spatial8providerNtBb_18FileRegionProviderNtBb_14RegionProvider15prefetch_around000Bd_
FN:149,_RNCNCNvXs3_NtCs4uPOfESYL58_11amp_spatial8providerINtB9_20MemoryRegionProviderNtNtCs7fnLZwG9eJV_5alloc6string6StringENtB9_14RegionProvider11load_region00Bb_
FN:253,_RNCNCNvXs5_NtCs4uPOfESYL58_11amp_spatial8providerNtB9_18FileRegionProviderNtB9_14RegionProvider15prefetch_around00Bb_
FN:145,_RNCNvXs3_NtCs4uPOfESYL58_11amp_spatial8providerINtB7_20MemoryRegionProviderNtNtCs7fnLZwG9eJV_5alloc6string6StringENtB7_14RegionProvider11load_region0B9_
FN:152,_RNCNvXs3_NtCs4uPOfESYL58_11amp_spatial8providerINtB7_20MemoryRegionProviderNtNtCs7fnLZwG9eJV_5alloc6string6StringENtB7_14RegionProvider13unload_region0B9_
FN:165,_RNCNvXs3_NtCs4uPOfESYL58_11amp_spatial8providerINtB7_20MemoryRegionProviderNtNtCs7fnLZwG9eJV_5alloc6string6StringENtB7_14RegionProvider15prefetch_around0B9_
FN:157,_RNCNvXs3_NtCs4uPOfESYL58_11amp_spatial8providerINtB7_20MemoryRegionProviderNtNtCs7fnLZwG9eJV_5alloc6string6StringENtB7_14RegionProvider16is_region_loaded0B9_
FN:170,_RNCNvXs3_NtCs4uPOfESYL58_11amp_spatial8providerINtB7_20MemoryRegionProviderNtNtCs7fnLZwG9eJV_5alloc6string6StringENtB7_14RegionProvider16update_streaming0B9_
FN:161,_RNCNvXs3_NtCs4uPOfESYL58_11amp_spatial8providerINtB7_20MemoryRegionProviderNtNtCs7fnLZwG9eJV_5alloc6string6StringENtB7_14RegionProvider18get_loaded_regions0B9_
FN:209,_RNCNvXs5_NtCs4uPOfESYL58_11amp_spatial8providerNtB7_18FileRegionProviderNtB7_14RegionProvider11load_region0B9_
FN:224,_RNCNvXs5_NtCs4uPOfESYL58_11amp_spatial8providerNtB7_18FileRegionProviderNtB7_14RegionProvider13unload_region0B9_
FN:240,_RNCNvXs5_NtCs4uPOfESYL58_11amp_spatial8providerNtB7_18FileRegionProviderNtB7_14RegionProvider15prefetch_around0B9_
FN:230,_RNCNvXs5_NtCs4uPOfESYL58_11amp_spatial8providerNtB7_18FileRegionProviderNtB7_14RegionProvider16is_region_loaded0B9_
FN:269,_RNCNvXs5_NtCs4uPOfESYL58_11amp_spatial8providerNtB7_18FileRegionProviderNtB7_14RegionProvider16update_streaming0B9_
FN:235,_RNCNvXs5_NtCs4uPOfESYL58_11amp_spatial8providerNtB7_18FileRegionProviderNtB7_14RegionProvider18get_loaded_regions0B9_
FN:117,_RNvMNtCs4uPOfESYL58_11amp_spatial8providerINtB2_20MemoryRegionProviderNtNtCs7fnLZwG9eJV_5alloc6string6StringE13insert_regionB4_
FN:109,_RNvMNtCs4uPOfESYL58_11amp_spatial8providerINtB2_20MemoryRegionProviderNtNtCs7fnLZwG9eJV_5alloc6string6StringE3newB4_
FN:145,_RNvXs3_NtCs4uPOfESYL58_11amp_spatial8providerINtB5_20MemoryRegionProviderNtNtCs7fnLZwG9eJV_5alloc6string6StringENtB5_14RegionProvider11load_regionB7_
FN:152,_RNvXs3_NtCs4uPOfESYL58_11amp_spatial8providerINtB5_20MemoryRegionProviderNtNtCs7fnLZwG9eJV_5alloc6string6StringENtB5_14RegionProvider13unload_regionB7_
FN:165,_RNvXs3_NtCs4uPOfESYL58_11amp_spatial8providerINtB5_20MemoryRegionProviderNtNtCs7fnLZwG9eJV_5alloc6string6StringENtB5_14RegionProvider15prefetch_aroundB7_
FN:157,_RNvXs3_NtCs4uPOfESYL58_11amp_spatial8providerINtB5_20MemoryRegionProviderNtNtCs7fnLZwG9eJV_5alloc6string6StringENtB5_14RegionProvider16is_region_loadedB7_
FN:170,_RNvXs3_NtCs4uPOfESYL58_11amp_spatial8providerINtB5_20MemoryRegionProviderNtNtCs7fnLZwG9eJV_5alloc6string6StringENtB5_14RegionProvider16update_streamingB7_
FN:161,_RNvXs3_NtCs4uPOfESYL58_11amp_spatial8providerINtB5_20MemoryRegionProviderNtNtCs7fnLZwG9eJV_5alloc6string6StringENtB5_14RegionProvider18get_loaded_regionsB7_
FN:199,_RNvMs0_NtCs4uPOfESYL58_11amp_spatial8providerNtB5_18FileRegionProvider15get_region_path
FN:303,_RNvXs1_NtCs4uPOfESYL58_11amp_spatial8providerNtB5_18FileRegionProviderNtNtCsd2KPTObkMr_4core5clone5Clone5clone
FN:209,_RNvXs5_NtCs4uPOfESYL58_11amp_spatial8providerNtB5_18FileRegionProviderNtB5_14RegionProvider11load_region
FN:224,_RNvXs5_NtCs4uPOfESYL58_11amp_spatial8providerNtB5_18FileRegionProviderNtB5_14RegionProvider13unload_region
FN:240,_RNvXs5_NtCs4uPOfESYL58_11amp_spatial8providerNtB5_18FileRegionProviderNtB5_14RegionProvider15prefetch_around
FN:230,_RNvXs5_NtCs4uPOfESYL58_11amp_spatial8providerNtB5_18FileRegionProviderNtB5_14RegionProvider16is_region_loaded
FN:269,_RNvXs5_NtCs4uPOfESYL58_11amp_spatial8providerNtB5_18FileRegionProviderNtB5_14RegionProvider16update_streaming
FN:235,_RNvXs5_NtCs4uPOfESYL58_11amp_spatial8providerNtB5_18FileRegionProviderNtB5_14RegionProvider18get_loaded_regions
FN:360,_RNvNtNtCs4uPOfESYL58_11amp_spatial8provider5testss_34test_file_provider_path_generation
FN:369,_RNvNtNtCs4uPOfESYL58_11amp_spatial8provider5testss_35test_file_provider_basic_operations
FN:347,_RNvNtNtCs4uPOfESYL58_11amp_spatial8provider5testss_35test_memory_provider_error_handling
FN:316,_RNvNtNtCs4uPOfESYL58_11amp_spatial8provider5testss_37test_memory_provider_basic_operations
FNDA:0,_RNvMNtCs4uPOfESYL58_11amp_spatial8providerINtB2_20MemoryRegionProviderpE12loaded_countB4_
FNDA:0,_RNvMNtCs4uPOfESYL58_11amp_spatial8providerINtB2_20MemoryRegionProviderpE12region_countB4_
FNDA:0,_RNvXININtCs4uPOfESYL58_11amp_spatial8providers_0pEINtB5_20MemoryRegionProviderpENtNtCsd2KPTObkMr_4core7default7Default7defaultB7_
FNDA:1,_RNCNvNtNtCs4uPOfESYL58_11amp_spatial8provider5testss_34test_file_provider_path_generation0B7_
FNDA:1,_RNCNvNtNtCs4uPOfESYL58_11amp_spatial8provider5testss_35test_file_provider_basic_operations0B7_
FNDA:1,_RNCNvNtNtCs4uPOfESYL58_11amp_spatial8provider5testss_35test_memory_provider_error_handling0B7_
FNDA:1,_RNCNvNtNtCs4uPOfESYL58_11amp_spatial8provider5testss_37test_memory_provider_basic_operations0B7_
FNDA:2,_RINvMs0_NtCs4uPOfESYL58_11amp_spatial8providerNtB6_18FileRegionProvider3newReEB8_
FNDA:4,_RNCNCNCNvXs5_NtCs4uPOfESYL58_11amp_spatial8providerNtBb_18FileRegionProviderNtBb_14RegionProvider15prefetch_around000Bd_
FNDA:1,_RNCNCNvXs3_NtCs4uPOfESYL58_11amp_spatial8providerINtB9_20MemoryRegionProviderNtNtCs7fnLZwG9eJV_5alloc6string6StringENtB9_14RegionProvider11load_region00Bb_
FNDA:4,_RNCNCNvXs5_NtCs4uPOfESYL58_11amp_spatial8providerNtB9_18FileRegionProviderNtB9_14RegionProvider15prefetch_around00Bb_
FNDA:2,_RNCNvXs3_NtCs4uPOfESYL58_11amp_spatial8providerINtB7_20MemoryRegionProviderNtNtCs7fnLZwG9eJV_5alloc6string6StringENtB7_14RegionProvider11load_region0B9_
FNDA:1,_RNCNvXs3_NtCs4uPOfESYL58_11amp_spatial8providerINtB7_20MemoryRegionProviderNtNtCs7fnLZwG9eJV_5alloc6string6StringENtB7_14RegionProvider13unload_region0B9_
FNDA:1,_RNCNvXs3_NtCs4uPOfESYL58_11amp_spatial8providerINtB7_20MemoryRegionProviderNtNtCs7fnLZwG9eJV_5alloc6string6StringENtB7_14RegionProvider15prefetch_around0B9_
FNDA:2,_RNCNvXs3_NtCs4uPOfESYL58_11amp_spatial8providerINtB7_20MemoryRegionProviderNtNtCs7fnLZwG9eJV_5alloc6string6StringENtB7_14RegionProvider16is_region_loaded0B9_
FNDA:1,_RNCNvXs3_NtCs4uPOfESYL58_11amp_spatial8providerINtB7_20MemoryRegionProviderNtNtCs7fnLZwG9eJV_5alloc6string6StringENtB7_14RegionProvider16update_streaming0B9_
FNDA:1,_RNCNvXs3_NtCs4uPOfESYL58_11amp_spatial8providerINtB7_20MemoryRegionProviderNtNtCs7fnLZwG9eJV_5alloc6string6StringENtB7_14RegionProvider18get_loaded_regions0B9_
FNDA:8,_RNCNvXs5_NtCs4uPOfESYL58_11amp_spatial8providerNtB7_18FileRegionProviderNtB7_14RegionProvider11load_region0B9_
FNDA:0,_RNCNvXs5_NtCs4uPOfESYL58_11amp_spatial8providerNtB7_18FileRegionProviderNtB7_14RegionProvider13unload_region0B9_
FNDA:1,_RNCNvXs5_NtCs4uPOfESYL58_11amp_spatial8providerNtB7_18FileRegionProviderNtB7_14RegionProvider15prefetch_around0B9_
FNDA:1,_RNCNvXs5_NtCs4uPOfESYL58_11amp_spatial8providerNtB7_18FileRegionProviderNtB7_14RegionProvider16is_region_loaded0B9_
FNDA:1,_RNCNvXs5_NtCs4uPOfESYL58_11amp_spatial8providerNtB7_18FileRegionProviderNtB7_14RegionProvider16update_streaming0B9_
FNDA:2,_RNCNvXs5_NtCs4uPOfESYL58_11amp_spatial8providerNtB7_18FileRegionProviderNtB7_14RegionProvider18get_loaded_regions0B9_
FNDA:1,_RNvMNtCs4uPOfESYL58_11amp_spatial8providerINtB2_20MemoryRegionProviderNtNtCs7fnLZwG9eJV_5alloc6string6StringE13insert_regionB4_
FNDA:2,_RNvMNtCs4uPOfESYL58_11amp_spatial8providerINtB2_20MemoryRegionProviderNtNtCs7fnLZwG9eJV_5alloc6string6StringE3newB4_
FNDA:2,_RNvXs3_NtCs4uPOfESYL58_11amp_spatial8providerINtB5_20MemoryRegionProviderNtNtCs7fnLZwG9eJV_5alloc6string6StringENtB5_14RegionProvider11load_regionB7_
FNDA:1,_RNvXs3_NtCs4uPOfESYL58_11amp_spatial8providerINtB5_20MemoryRegionProviderNtNtCs7fnLZwG9eJV_5alloc6string6StringENtB5_14RegionProvider13unload_regionB7_
FNDA:1,_RNvXs3_NtCs4uPOfESYL58_11amp_spatial8providerINtB5_20MemoryRegionProviderNtNtCs7fnLZwG9eJV_5alloc6string6StringENtB5_14RegionProvider15prefetch_aroundB7_
FNDA:2,_RNvXs3_NtCs4uPOfESYL58_11amp_spatial8providerINtB5_20MemoryRegionProviderNtNtCs7fnLZwG9eJV_5alloc6string6StringENtB5_14RegionProvider16is_region_loadedB7_
FNDA:1,_RNvXs3_NtCs4uPOfESYL58_11amp_spatial8providerINtB5_20MemoryRegionProviderNtNtCs7fnLZwG9eJV_5alloc6string6StringENtB5_14RegionProvider16update_streamingB7_
FNDA:1,_RNvXs3_NtCs4uPOfESYL58_11amp_spatial8providerINtB5_20MemoryRegionProviderNtNtCs7fnLZwG9eJV_5alloc6string6StringENtB5_14RegionProvider18get_loaded_regionsB7_
FNDA:9,_RNvMs0_NtCs4uPOfESYL58_11amp_spatial8providerNtB5_18FileRegionProvider15get_region_path
FNDA:4,_RNvXs1_NtCs4uPOfESYL58_11amp_spatial8providerNtB5_18FileRegionProviderNtNtCsd2KPTObkMr_4core5clone5Clone5clone
FNDA:8,_RNvXs5_NtCs4uPOfESYL58_11amp_spatial8providerNtB5_18FileRegionProviderNtB5_14RegionProvider11load_region
FNDA:0,_RNvXs5_NtCs4uPOfESYL58_11amp_spatial8providerNtB5_18FileRegionProviderNtB5_14RegionProvider13unload_region
FNDA:1,_RNvXs5_NtCs4uPOfESYL58_11amp_spatial8providerNtB5_18FileRegionProviderNtB5_14RegionProvider15prefetch_around
FNDA:1,_RNvXs5_NtCs4uPOfESYL58_11amp_spatial8providerNtB5_18FileRegionProviderNtB5_14RegionProvider16is_region_loaded
FNDA:1,_RNvXs5_NtCs4uPOfESYL58_11amp_spatial8providerNtB5_18FileRegionProviderNtB5_14RegionProvider16update_streaming
FNDA:2,_RNvXs5_NtCs4uPOfESYL58_11amp_spatial8providerNtB5_18FileRegionProviderNtB5_14RegionProvider18get_loaded_regions
FNDA:1,_RNvNtNtCs4uPOfESYL58_11amp_spatial8provider5testss_34test_file_provider_path_generation
FNDA:1,_RNvNtNtCs4uPOfESYL58_11amp_spatial8provider5testss_35test_file_provider_basic_operations
FNDA:1,_RNvNtNtCs4uPOfESYL58_11amp_spatial8provider5testss_35test_memory_provider_error_handling
FNDA:1,_RNvNtNtCs4uPOfESYL58_11amp_spatial8provider5testss_37test_memory_provider_basic_operations
FNF:31
FNH:27
DA:109,2
DA:110,2
DA:111,2
DA:112,2
DA:113,2
DA:114,2
DA:117,1
DA:118,1
DA:119,1
DA:122,0
DA:123,0
DA:124,0
DA:127,0
DA:128,0
DA:129,0
DA:133,0
DA:134,0
DA:135,0
DA:145,4
DA:146,2
DA:147,2
DA:148,2
DA:149,2
DA:150,4
DA:152,2
DA:154,1
DA:155,2
DA:157,4
DA:158,2
DA:159,4
DA:161,2
DA:162,1
DA:163,2
DA:165,2
DA:167,1
DA:168,2
DA:170,2
DA:172,1
DA:173,2
DA:191,2
DA:192,2
DA:193,2
DA:194,2
DA:195,2
DA:196,2
DA:199,9
DA:200,9
DA:201,9
DA:202,9
DA:209,16
DA:210,8
DA:212,8
DA:213,0
DA:214,0
DA:215,0
DA:216,0
DA:218,8
DA:219,8
DA:220,8
DA:222,16
DA:224,0
DA:225,0
DA:226,0
DA:227,0
DA:228,0
DA:230,2
DA:231,1
DA:232,1
DA:233,2
DA:235,4
DA:236,2
DA:237,2
DA:238,4
DA:240,2
DA:242,1
DA:243,1
DA:244,1
DA:245,1
DA:248,1
DA:251,1
DA:252,1
DA:253,4
DA:254,4
DA:255,4
DA:256,4
DA:257,4
DA:258,4
DA:259,1
DA:262,5
DA:263,4
DA:266,1
DA:267,2
DA:269,2
DA:271,1
DA:272,1
DA:273,1
DA:274,1
DA:277,1
DA:278,1
DA:279,1
DA:280,1
DA:281,1
DA:283,1
DA:284,1
DA:285,1
DA:288,1
DA:289,0
DA:293,4
DA:294,4
DA:297,1
DA:298,2
DA:303,4
DA:304,4
DA:305,4
DA:306,4
DA:307,4
DA:308,4
DA:316,1
DA:317,1
DA:318,1
DA:319,1
DA:321,1
DA:324,1
DA:325,1
DA:328,1
DA:331,1
DA:332,1
DA:333,1
DA:336,1
DA:339,1
DA:340,1
DA:341,1
DA:342,1
DA:343,1
DA:344,1
DA:347,1
DA:348,1
DA:349,1
DA:352,1
DA:353,1
DA:356,1
DA:357,1
DA:360,1
DA:361,1
DA:362,1
DA:364,1
DA:365,1
DA:366,1
DA:369,1
DA:370,1
DA:371,1
DA:374,1
DA:377,1
DA:378,1
DA:381,1
DA:382,1
DA:383,1
DA:384,1
DA:385,1
DA:386,1
BRF:0
BRH:0
LF:171
LH:152
end_of_record
SF:/Users/bradyjeong/Documents/Projects/Amp/gta4/gta_game/crates/amp_spatial/src/region.rs
FN:29,_RNvMNtCs4uPOfESYL58_11amp_spatial6regionNtB2_8RegionId11morton_code
FN:19,_RNvMNtCs4uPOfESYL58_11amp_spatial6regionNtB2_8RegionId3new
FN:50,_RNvMNtCs4uPOfESYL58_11amp_spatial6regionNtB2_8RegionId5level
FN:24,_RNvMNtCs4uPOfESYL58_11amp_spatial6regionNtB2_8RegionId11from_coords
FN:39,_RNvMNtCs4uPOfESYL58_11amp_spatial6regionNtB2_8RegionId6parent
FN:44,_RNvMNtCs4uPOfESYL58_11amp_spatial6regionNtB2_8RegionId8children
FN:55,_RNvMNtCs4uPOfESYL58_11amp_spatial6regionNtB2_8RegionId9neighbors
FN:34,_RNvMNtCs4uPOfESYL58_11amp_spatial6regionNtB2_8RegionId9to_coords
FN:131,_RNvMs0_NtCs4uPOfESYL58_11amp_spatial6regionNtB5_12RegionBounds10intersects
FN:123,_RNvMs0_NtCs4uPOfESYL58_11amp_spatial6regionNtB5_12RegionBounds14contains_point
FN:108,_RNvMs0_NtCs4uPOfESYL58_11amp_spatial6regionNtB5_12RegionBounds3new
FN:118,_RNvMs0_NtCs4uPOfESYL58_11amp_spatial6regionNtB5_12RegionBounds4size
FN:113,_RNvMs0_NtCs4uPOfESYL58_11amp_spatial6regionNtB5_12RegionBounds6center
FN:146,_RNvMs1_NtCs4uPOfESYL58_11amp_spatial6regionNtB5_6Region17from_world_coords
FN:160,_RNvMs1_NtCs4uPOfESYL58_11amp_spatial6regionNtB5_6Region19get_regions_in_area
FN:141,_RNvMs1_NtCs4uPOfESYL58_11amp_spatial6regionNtB5_6Region3new
FN:80,_RNvXs_NtCs4uPOfESYL58_11amp_spatial6regionNtB4_8RegionIdNtNtCsd2KPTObkMr_4core3fmt7Display3fmt
FN:275,_RNvNtNtCs4uPOfESYL58_11amp_spatial6region5testss_22test_region_id_display
FN:188,_RNvNtNtCs4uPOfESYL58_11amp_spatial6region5testss_23test_region_id_creation
FN:196,_RNvNtNtCs4uPOfESYL58_11amp_spatial6region5testss_24test_region_id_hierarchy
FN:212,_RNvNtNtCs4uPOfESYL58_11amp_spatial6region5testss_24test_region_id_neighbors
FN:226,_RNvNtNtCs4uPOfESYL58_11amp_spatial6region5testss_27test_region_bounds_contains
FN:237,_RNvNtNtCs4uPOfESYL58_11amp_spatial6region5testss_29test_region_bounds_intersects
FN:249,_RNvNtNtCs4uPOfESYL58_11amp_spatial6region5testss_29test_region_from_world_coords
FN:258,_RNvNtNtCs4uPOfESYL58_11amp_spatial6region5testss_31test_region_get_regions_in_area
FN:282,_RNvNtNtCs4uPOfESYL58_11amp_spatial6region5testss_34test_region_bounds_center_and_size
FNDA:0,_RNvMNtCs4uPOfESYL58_11amp_spatial6regionNtB2_8RegionId11morton_code
FNDA:0,_RNvMNtCs4uPOfESYL58_11amp_spatial6regionNtB2_8RegionId3new
FNDA:0,_RNvMNtCs4uPOfESYL58_11amp_spatial6regionNtB2_8RegionId5level
FNDA:96346,_RNvMNtCs4uPOfESYL58_11amp_spatial6regionNtB2_8RegionId11from_coords
FNDA:5,_RNvMNtCs4uPOfESYL58_11amp_spatial6regionNtB2_8RegionId6parent
FNDA:1,_RNvMNtCs4uPOfESYL58_11amp_spatial6regionNtB2_8RegionId8children
FNDA:1,_RNvMNtCs4uPOfESYL58_11amp_spatial6regionNtB2_8RegionId9neighbors
FNDA:21,_RNvMNtCs4uPOfESYL58_11amp_spatial6regionNtB2_8RegionId9to_coords
FNDA:4,_RNvMs0_NtCs4uPOfESYL58_11amp_spatial6regionNtB5_12RegionBounds10intersects
FNDA:5,_RNvMs0_NtCs4uPOfESYL58_11amp_spatial6regionNtB5_12RegionBounds14contains_point
FNDA:26,_RNvMs0_NtCs4uPOfESYL58_11amp_spatial6regionNtB5_12RegionBounds3new
FNDA:1,_RNvMs0_NtCs4uPOfESYL58_11amp_spatial6regionNtB5_12RegionBounds4size
FNDA:1,_RNvMs0_NtCs4uPOfESYL58_11amp_spatial6regionNtB5_12RegionBounds6center
FNDA:1,_RNvMs1_NtCs4uPOfESYL58_11amp_spatial6regionNtB5_6Region17from_world_coords
FNDA:3,_RNvMs1_NtCs4uPOfESYL58_11amp_spatial6regionNtB5_6Region19get_regions_in_area
FNDA:18,_RNvMs1_NtCs4uPOfESYL58_11amp_spatial6regionNtB5_6Region3new
FNDA:10,_RNvXs_NtCs4uPOfESYL58_11amp_spatial6regionNtB4_8RegionIdNtNtCsd2KPTObkMr_4core3fmt7Display3fmt
FNDA:1,_RNvNtNtCs4uPOfESYL58_11amp_spatial6region5testss_22test_region_id_display
FNDA:1,_RNvNtNtCs4uPOfESYL58_11amp_spatial6region5testss_23test_region_id_creation
FNDA:1,_RNvNtNtCs4uPOfESYL58_11amp_spatial6region5testss_24test_region_id_hierarchy
FNDA:1,_RNvNtNtCs4uPOfESYL58_11amp_spatial6region5testss_24test_region_id_neighbors
FNDA:1,_RNvNtNtCs4uPOfESYL58_11amp_spatial6region5testss_27test_region_bounds_contains
FNDA:1,_RNvNtNtCs4uPOfESYL58_11amp_spatial6region5testss_29test_region_bounds_intersects
FNDA:1,_RNvNtNtCs4uPOfESYL58_11amp_spatial6region5testss_29test_region_from_world_coords
FNDA:1,_RNvNtNtCs4uPOfESYL58_11amp_spatial6region5testss_31test_region_get_regions_in_area
FNDA:1,_RNvNtNtCs4uPOfESYL58_11amp_spatial6region5testss_34test_region_bounds_center_and_size
FNF:26
FNH:23
DA:19,0
DA:20,0
DA:21,0
DA:24,96346
DA:25,96346
DA:26,96346
DA:29,0
DA:30,0
DA:31,0
DA:34,21
DA:35,21
DA:36,21
DA:39,5
DA:40,5
DA:41,5
DA:44,1
DA:45,1
DA:46,1
DA:47,1
DA:50,0
DA:51,0
DA:52,0
DA:55,1
DA:56,1
DA:57,1
DA:60,4
DA:61,12
DA:62,9
DA:63,1
DA:64,8
DA:66,8
DA:67,8
DA:69,8
DA:70,8
DA:71,8
DA:75,1
DA:76,1
DA:80,10
DA:81,10
DA:82,10
DA:83,10
DA:108,26
DA:109,26
DA:110,26
DA:113,1
DA:114,1
DA:115,1
DA:118,1
DA:119,1
DA:120,1
DA:123,5
DA:124,5
DA:125,4
DA:126,3
DA:127,3
DA:128,5
DA:131,4
DA:132,4
DA:133,3
DA:134,2
DA:135,2
DA:136,4
DA:141,18
DA:142,18
DA:143,18
DA:146,1
DA:147,1
DA:148,1
DA:149,1
DA:151,1
DA:152,1
DA:153,1
DA:154,1
DA:156,1
DA:157,1
DA:160,3
DA:161,3
DA:163,3
DA:164,3
DA:165,3
DA:166,3
DA:168,3
DA:169,7
DA:170,17
DA:171,17
DA:172,17
DA:173,17
DA:174,17
DA:175,17
DA:176,17
DA:179,3
DA:180,3
DA:188,1
DA:189,1
DA:190,1
DA:191,1
DA:192,1
DA:193,1
DA:196,1
DA:197,1
DA:198,1
DA:199,1
DA:202,1
DA:203,1
DA:206,5
DA:207,4
DA:209,1
DA:212,1
DA:213,1
DA:214,1
DA:217,1
DA:220,1
DA:221,1
DA:222,1
DA:223,1
DA:226,1
DA:227,1
DA:229,1
DA:230,1
DA:231,1
DA:232,1
DA:233,1
DA:234,1
DA:237,1
DA:238,1
DA:239,1
DA:240,1
DA:242,1
DA:243,1
DA:244,1
DA:245,1
DA:246,1
DA:249,1
DA:250,1
DA:252,1
DA:253,1
DA:254,1
DA:255,1
DA:258,1
DA:259,1
DA:260,1
DA:266,1
DA:269,10
DA:270,9
DA:272,1
DA:275,1
DA:276,1
DA:277,1
DA:278,1
DA:279,1
DA:282,1
DA:283,1
DA:285,1
DA:286,1
DA:287,1
BRF:0
BRH:0
LF:155
LH:146
end_of_record
SF:/Users/bradyjeong/Documents/Projects/Amp/gta4/gta_game/crates/amp_world/src/lib.rs
FN:53,_RNvNtCsaA3sMrT0Yhd_9amp_world5testss_26test_world_manager_default
FN:47,_RNvNtCsaA3sMrT0Yhd_9amp_world5testss_27test_world_manager_creation
FN:31,_RNvMCsaA3sMrT0Yhd_9amp_worldNtB2_12WorldManager9world_mut
FN:19,_RNvMCsaA3sMrT0Yhd_9amp_worldNtB2_12WorldManager3new
FN:26,_RNvMCsaA3sMrT0Yhd_9amp_worldNtB2_12WorldManager5world
FN:37,_RNvXs_CsaA3sMrT0Yhd_9amp_worldNtB4_12WorldManagerNtNtCsd2KPTObkMr_4core7default7Default7default
FNDA:1,_RNvNtCsaA3sMrT0Yhd_9amp_world5testss_26test_world_manager_default
FNDA:1,_RNvNtCsaA3sMrT0Yhd_9amp_world5testss_27test_world_manager_creation
FNDA:0,_RNvMCsaA3sMrT0Yhd_9amp_worldNtB2_12WorldManager9world_mut
FNDA:2,_RNvMCsaA3sMrT0Yhd_9amp_worldNtB2_12WorldManager3new
FNDA:2,_RNvMCsaA3sMrT0Yhd_9amp_worldNtB2_12WorldManager5world
FNDA:1,_RNvXs_CsaA3sMrT0Yhd_9amp_worldNtB4_12WorldManagerNtNtCsd2KPTObkMr_4core7default7Default7default
FNF:6
FNH:5
DA:19,2
DA:20,2
DA:21,2
DA:22,2
DA:23,2
DA:26,2
DA:27,2
DA:28,2
DA:31,0
DA:32,0
DA:33,0
DA:37,1
DA:38,1
DA:39,1
DA:47,1
DA:48,1
DA:49,1
DA:50,1
DA:53,1
DA:54,1
DA:55,1
DA:56,1
BRF:0
BRH:0
LF:22
LH:19
end_of_record
SF:/Users/bradyjeong/Documents/Projects/Amp/gta4/gta_game/crates/config_core/src/lib.rs
FN:227,_RNCNCNvNtCsJv4e08Ea6h_11config_core5testss_43test_config_loader_watch_without_hot_reload00B7_
FN:41,_RNvMCsJv4e08Ea6h_11config_coreNtB2_12ConfigLoader3new
FN:96,_RNvXs_CsJv4e08Ea6h_11config_coreNtB4_12ConfigLoaderNtNtCsd2KPTObkMr_4core7default7Default7default
FN:129,_RNCNvNtCsJv4e08Ea6h_11config_core5testss_22test_config_loader_new0B5_
FN:226,_RNCNvNtCsJv4e08Ea6h_11config_core5testss_43test_config_loader_watch_without_hot_reload0B5_
FN:23,_RNvYNtNtCsJv4e08Ea6h_11config_core5tests10TestConfigNtB6_6Config12default_pathB6_
FN:59,_RINvMCsJv4e08Ea6h_11config_coreNtB3_12ConfigLoader4loadNtNtB3_5tests10TestConfigEB3_
FN:59,_RINvMCsJv4e08Ea6h_11config_coreNtB3_12ConfigLoader4loadNtNtB3_5tests16CustomPathConfigEB3_
FN:82,_RINvMCsJv4e08Ea6h_11config_coreNtB3_12ConfigLoader5watchNtNtB3_5tests10TestConfigNCNCNvBU_s_43test_config_loader_watch_without_hot_reload00EB3_
FN:65,_RNCINvMCsJv4e08Ea6h_11config_coreNtB5_12ConfigLoader4loadNtNtB5_5tests10TestConfigE0B5_
FN:68,_RNCINvMCsJv4e08Ea6h_11config_coreNtB5_12ConfigLoader4loadNtNtB5_5tests10TestConfigEs_0B5_
FN:65,_RNCINvMCsJv4e08Ea6h_11config_coreNtB5_12ConfigLoader4loadNtNtB5_5tests16CustomPathConfigE0B5_
FN:68,_RNCINvMCsJv4e08Ea6h_11config_coreNtB5_12ConfigLoader4loadNtNtB5_5tests16CustomPathConfigEs_0B5_
FN:42,_RNCNvMCsJv4e08Ea6h_11config_coreNtB4_12ConfigLoader3new0B4_
FN:118,_RNvNtCsJv4e08Ea6h_11config_core5testss_17test_config_trait
FN:124,_RNvNtCsJv4e08Ea6h_11config_core5testss_22test_config_loader_new
FN:279,_RNvNtCsJv4e08Ea6h_11config_core5testss_23test_dedup_search_paths
FN:210,_RNvNtCsJv4e08Ea6h_11config_core5testss_26test_config_loader_default
FN:246,_RNvNtCsJv4e08Ea6h_11config_core5testss_26test_default_path_override
FN:139,_RNvNtCsJv4e08Ea6h_11config_core5testss_31test_config_loader_load_success
FN:185,_RNvNtCsJv4e08Ea6h_11config_core5testss_31test_config_loader_search_order
FN:157,_RNvNtCsJv4e08Ea6h_11config_core5testss_33test_config_loader_load_not_found
FN:168,_RNvNtCsJv4e08Ea6h_11config_core5testss_35test_config_loader_load_invalid_ron
FN:296,_RNvNtCsJv4e08Ea6h_11config_core5testss_36test_config_error_preserves_io_error
FN:264,_RNvNtCsJv4e08Ea6h_11config_core5testss_36test_load_returns_typed_config_error
FN:216,_RNvNtCsJv4e08Ea6h_11config_core5testss_43test_config_loader_watch_without_hot_reload
FN:240,_RNvXs_NtCsJv4e08Ea6h_11config_core5testsNtB4_16CustomPathConfigNtB6_6Config12default_path
FNDA:0,_RNCNCNvNtCsJv4e08Ea6h_11config_core5testss_43test_config_loader_watch_without_hot_reload00B7_
FNDA:3,_RNvMCsJv4e08Ea6h_11config_coreNtB2_12ConfigLoader3new
FNDA:1,_RNvXs_CsJv4e08Ea6h_11config_coreNtB4_12ConfigLoaderNtNtCsd2KPTObkMr_4core7default7Default7default
FNDA:0,_RNCNvNtCsJv4e08Ea6h_11config_core5testss_22test_config_loader_new0B5_
FNDA:1,_RNCNvNtCsJv4e08Ea6h_11config_core5testss_43test_config_loader_watch_without_hot_reload0B5_
FNDA:11,_RNvYNtNtCsJv4e08Ea6h_11config_core5tests10TestConfigNtB6_6Config12default_pathB6_
FNDA:7,_RINvMCsJv4e08Ea6h_11config_coreNtB3_12ConfigLoader4loadNtNtB3_5tests10TestConfigEB3_
FNDA:1,_RINvMCsJv4e08Ea6h_11config_coreNtB3_12ConfigLoader4loadNtNtB3_5tests16CustomPathConfigEB3_
FNDA:1,_RINvMCsJv4e08Ea6h_11config_coreNtB3_12ConfigLoader5watchNtNtB3_5tests10TestConfigNCNCNvBU_s_43test_config_loader_watch_without_hot_reload00EB3_
FNDA:0,_RNCINvMCsJv4e08Ea6h_11config_coreNtB5_12ConfigLoader4loadNtNtB5_5tests10TestConfigE0B5_
FNDA:1,_RNCINvMCsJv4e08Ea6h_11config_coreNtB5_12ConfigLoader4loadNtNtB5_5tests10TestConfigEs_0B5_
FNDA:0,_RNCINvMCsJv4e08Ea6h_11config_coreNtB5_12ConfigLoader4loadNtNtB5_5tests16CustomPathConfigE0B5_
FNDA:0,_RNCINvMCsJv4e08Ea6h_11config_coreNtB5_12ConfigLoader4loadNtNtB5_5tests16CustomPathConfigEs_0B5_
FNDA:0,_RNCNvMCsJv4e08Ea6h_11config_coreNtB4_12ConfigLoader3new0B4_
FNDA:1,_RNvNtCsJv4e08Ea6h_11config_core5testss_17test_config_trait
FNDA:1,_RNvNtCsJv4e08Ea6h_11config_core5testss_22test_config_loader_new
FNDA:1,_RNvNtCsJv4e08Ea6h_11config_core5testss_23test_dedup_search_paths
FNDA:1,_RNvNtCsJv4e08Ea6h_11config_core5testss_26test_config_loader_default
FNDA:1,_RNvNtCsJv4e08Ea6h_11config_core5testss_26test_default_path_override
FNDA:1,_RNvNtCsJv4e08Ea6h_11config_core5testss_31test_config_loader_load_success
FNDA:1,_RNvNtCsJv4e08Ea6h_11config_core5testss_31test_config_loader_search_order
FNDA:1,_RNvNtCsJv4e08Ea6h_11config_core5testss_33test_config_loader_load_not_found
FNDA:1,_RNvNtCsJv4e08Ea6h_11config_core5testss_35test_config_loader_load_invalid_ron
FNDA:1,_RNvNtCsJv4e08Ea6h_11config_core5testss_36test_config_error_preserves_io_error
FNDA:1,_RNvNtCsJv4e08Ea6h_11config_core5testss_36test_load_returns_typed_config_error
FNDA:1,_RNvNtCsJv4e08Ea6h_11config_core5testss_43test_config_loader_watch_without_hot_reload
FNDA:1,_RNvXs_NtCsJv4e08Ea6h_11config_core5testsNtB4_16CustomPathConfigNtB6_6Config12default_path
FNF:24
FNH:20
DA:23,11
DA:24,11
DA:25,11
DA:41,3
DA:42,3
DA:45,3
DA:46,3
DA:47,3
DA:50,3
DA:52,3
DA:53,3
DA:59,8
DA:60,11
DA:61,8
DA:62,8
DA:64,5
DA:65,5
DA:67,5
DA:68,5
DA:70,4
DA:72,3
DA:73,3
DA:74,3
DA:75,8
DA:82,1
DA:86,1
DA:96,1
DA:97,1
DA:98,1
DA:118,1
DA:119,1
DA:120,1
DA:121,1
DA:124,1
DA:125,1
DA:126,1
DA:129,1
DA:130,1
DA:133,1
DA:134,1
DA:135,0
DA:136,1
DA:139,1
DA:140,1
DA:141,1
DA:144,1
DA:147,1
DA:148,1
DA:149,1
DA:151,1
DA:152,1
DA:153,1
DA:154,1
DA:157,1
DA:158,1
DA:159,1
DA:160,1
DA:162,1
DA:163,1
DA:164,1
DA:165,1
DA:168,1
DA:169,1
DA:170,1
DA:173,1
DA:175,1
DA:176,1
DA:177,1
DA:179,1
DA:180,1
DA:181,1
DA:182,1
DA:185,1
DA:186,1
DA:187,1
DA:189,1
DA:190,1
DA:193,1
DA:194,1
DA:197,1
DA:198,1
DA:199,1
DA:200,1
DA:201,1
DA:202,1
DA:204,1
DA:205,1
DA:206,1
DA:207,1
DA:210,1
DA:211,1
DA:212,1
DA:213,1
DA:216,1
DA:217,1
DA:226,1
DA:227,1
DA:228,1
DA:230,1
DA:240,1
DA:241,1
DA:242,1
DA:246,1
DA:248,1
DA:249,1
DA:250,1
DA:252,1
DA:253,1
DA:255,1
DA:256,1
DA:257,1
DA:259,1
DA:260,1
DA:261,1
DA:264,1
DA:265,1
DA:266,1
DA:267,1
DA:269,1
DA:270,1
DA:272,1
DA:274,1
DA:275,1
DA:276,1
DA:279,1
DA:281,1
DA:282,1
DA:284,1
DA:285,1
DA:286,1
DA:289,1
DA:291,1
DA:292,1
DA:293,1
DA:296,1
DA:298,1
DA:299,1
DA:302,1
DA:304,1
DA:305,1
DA:306,1
DA:308,1
DA:311,1
DA:314,1
DA:315,1
DA:316,1
DA:318,1
DA:319,1
DA:321,1
DA:322,1
DA:323,1
BRF:0
BRH:0
LF:158
LH:153
end_of_record
SF:/Users/bradyjeong/Documents/Projects/Amp/gta4/gta_game/tools/xtask/src/main.rs
FN:197,_RNvCskgkwDtHOYyz_5xtask12bump_version
FN:142,_RNvCskgkwDtHOYyz_5xtask16run_doc_validate
FN:45,_RNvCskgkwDtHOYyz_5xtask4main
FN:60,_RNvCskgkwDtHOYyz_5xtask6run_ci
FN:127,_RNvCskgkwDtHOYyz_5xtask7run_doc
FN:73,_RNvCskgkwDtHOYyz_5xtask7run_fmt
FN:89,_RNvCskgkwDtHOYyz_5xtask8run_lint
FN:112,_RNvCskgkwDtHOYyz_5xtask8run_test
FN:182,_RNvCskgkwDtHOYyz_5xtask9run_check
FNDA:0,_RNvCskgkwDtHOYyz_5xtask12bump_version
FNDA:0,_RNvCskgkwDtHOYyz_5xtask16run_doc_validate
FNDA:0,_RNvCskgkwDtHOYyz_5xtask4main
FNDA:0,_RNvCskgkwDtHOYyz_5xtask6run_ci
FNDA:0,_RNvCskgkwDtHOYyz_5xtask7run_doc
FNDA:0,_RNvCskgkwDtHOYyz_5xtask7run_fmt
FNDA:0,_RNvCskgkwDtHOYyz_5xtask8run_lint
FNDA:0,_RNvCskgkwDtHOYyz_5xtask8run_test
FNDA:0,_RNvCskgkwDtHOYyz_5xtask9run_check
FNF:9
FNH:0
DA:45,0
DA:46,0
DA:48,0
DA:49,0
DA:50,0
DA:51,0
DA:52,0
DA:53,0
DA:54,0
DA:55,0
DA:56,0
DA:58,0
DA:60,0
DA:61,0
DA:63,0
DA:64,0
DA:65,0
DA:66,0
DA:67,0
DA:69,0
DA:70,0
DA:71,0
DA:73,0
DA:74,0
DA:76,0
DA:77,0
DA:78,0
DA:80,0
DA:81,0
DA:82,0
DA:83,0
DA:85,0
DA:86,0
DA:87,0
DA:89,0
DA:90,0
DA:92,0
DA:93,0
DA:94,0
DA:95,0
DA:96,0
DA:97,0
DA:98,0
DA:99,0
DA:100,0
DA:101,0
DA:102,0
DA:104,0
DA:105,0
DA:106,0
DA:108,0
DA:109,0
DA:110,0
DA:112,0
DA:113,0
DA:115,0
DA:116,0
DA:117,0
DA:119,0
DA:120,0
DA:121,0
DA:123,0
DA:124,0
DA:125,0
DA:127,0
DA:128,0
DA:130,0
DA:131,0
DA:132,0
DA:134,0
DA:135,0
DA:136,0
DA:138,0
DA:139,0
DA:140,0
DA:142,0
DA:143,0
DA:146,0
DA:147,0
DA:148,0
DA:149,0
DA:151,0
DA:152,0
DA:153,0
DA:156,0
DA:157,0
DA:158,0
DA:159,0
DA:160,0
DA:161,0
DA:162,0
DA:163,0
DA:164,0
DA:166,0
DA:167,0
DA:168,0
DA:169,0
DA:170,0
DA:172,0
DA:173,0
DA:174,0
DA:175,0
DA:178,0
DA:179,0
DA:180,0
DA:182,0
DA:183,0
DA:185,0
DA:186,0
DA:187,0
DA:189,0
DA:190,0
DA:191,0
DA:193,0
DA:194,0
DA:195,0
DA:197,0
DA:198,0
DA:199,0
DA:200,0
DA:201,0
DA:204,0
DA:207,0
DA:209,0
DA:210,0
BRF:0
BRH:0
LF:125
LH:0
end_of_record